Archive member included to satisfy reference by file (symbol)

libmbed.a(startup_RZ1AH.o)    (Reset_Handler)
libmbed.a(RZ_A1_Init.o)       libmbed.a(startup_RZ1AH.o) (RZ_A1_SetSramWriteEnable)
libmbed.a(mmu_Renesas_RZ_A1.o)
                              libmbed.a(startup_RZ1AH.o) (create_translation_table)
libmbed.a(system_MBRZA1H.o)   libmbed.a(startup_RZ1AH.o) (InitMemorySubsystem)
libmbed.a(gpio.o)             blinky.o (gpio_init_out)
libmbed.a(common.o)           blinky.o (__dso_handle)
libmbed.a(Timeout.o)          blinky.o (vtable for mbed::Timeout)
libmbed.a(TimerEvent.o)       blinky.o (mbed::TimerEvent::TimerEvent())
libmbed.a(retarget.o)         libmbed.a(TimerEvent.o) (__cxa_pure_virtual)
libmbed.a(Ticker.o)           blinky.o (mbed::Ticker::detach())
libmbed.a(SoftPWM.o)          blinky.o (SoftPWM::SoftPWM(PinName, bool))
libmbed.a(cache.o)            libmbed.a(system_MBRZA1H.o) (__v7_all_cache)
libmbed.a(gic.o)              libmbed.a(system_MBRZA1H.o) (GIC_Enable)
libmbed.a(pl310.o)            libmbed.a(system_MBRZA1H.o) (PL310_GetID)
libmbed.a(gpio_api.o)         libmbed.a(gpio.o) (gpio_init)
libmbed.a(pinmap.o)           libmbed.a(gpio_api.o) (pin_function)
libmbed.a(serial_api.o)       libmbed.a(retarget.o) (stdio_uart_inited)
libmbed.a(assert.o)           libmbed.a(serial_api.o) (mbed_assert_internal)
libmbed.a(board.o)            libmbed.a(retarget.o) (mbed_die)
libmbed.a(error.o)            libmbed.a(retarget.o) (error)
libmbed.a(pinmap_common.o)    libmbed.a(serial_api.o) (pinmap_pinout)
libmbed.a(us_ticker_api.o)    libmbed.a(TimerEvent.o) (get_us_ticker_data)
libmbed.a(wait_api.o)         libmbed.a(SoftPWM.o) (wait)
libmbed.a(ticker_api.o)       libmbed.a(TimerEvent.o) (ticker_set_handler)
libmbed.a(FilePath.o)         libmbed.a(retarget.o) (mbed::FilePath::FilePath(char const*))
libmbed.a(FileSystemLike.o)   libmbed.a(retarget.o) (mbed::FileSystemLike::opendir())
libmbed.a(us_ticker.o)        libmbed.a(us_ticker_api.o) (us_ticker_init)
libmbed.a(FileBase.o)         libmbed.a(FileSystemLike.o) (mbed::FileBase::FileBase(char const*, mbed::PathType))
./libkernel.a(target_support.o)
                              start.o (hardware_init_hook)
./libkernel.a(core_support.o)
                              libmbed.a(startup_RZ1AH.o) (_kernel_irq_handler)
./libkernel.a(target_kernel_impl.o)
                              libmbed.a(system_MBRZA1H.o) (gr_peach_set_led)
./libkernel.a(chip_kernel_impl.o)
                              ./libkernel.a(target_kernel_impl.o) (_kernel_chip_terminate)
./libkernel.a(gic_kernel_impl.o)
                              ./libkernel.a(chip_kernel_impl.o) (_kernel_gicc_initialize)
./libkernel.a(chip_timer.o)   kernel_cfg.o (_kernel_target_hrt_initialize)
./libkernel.a(core_kernel_impl.o)
                              ./libkernel.a(core_support.o) (_kernel_excpt_nest_count)
./libkernel.a(arm.o)          ./libkernel.a(chip_kernel_impl.o) (arm_enable_dcache)
./libkernel.a(startup.o)      start.o (sta_ker)
./libkernel.a(task.o)         ./libkernel.a(core_support.o) (_kernel_p_runtsk)
./libkernel.a(taskhook.o)     ./libkernel.a(task.o) (_kernel_mtxhook_release_all)
./libkernel.a(time_event.o)   ./libkernel.a(startup.o) (_kernel_current_hrtcnt)
./libkernel.a(task_sync.o)    tLogTaskMain.o (dly_tsk)
./libkernel.a(task_term.o)    ./libkernel.a(core_support.o) (ext_tsk)
./libkernel.a(semaphore.o)    kernel_cfg.o (_kernel_initialize_semaphore)
./libkernel.a(sys_manage.o)   tSerialPortMain.o (loc_cpu)
./libkernel.a(interrupt.o)    tSerialPortMain.o (dis_int)
./libkernel.a(gic_support.o)  ./libkernel.a(core_support.o) (_kernel_irc_begin_int)
./libkernel.a(wait.o)         ./libkernel.a(task_sync.o) (_kernel_make_wait_tmout)
/opt/Atollic_TrueSTUDIO_for_ARM_x86_64_8.0.0/ARMTools/bin/../lib/gcc/arm-atollic-eabi/6.3.1/armv7-ar/thumb/fpu/libgcc.a(_udivsi3.o)
                              log_output.o (__aeabi_uidiv)
/opt/Atollic_TrueSTUDIO_for_ARM_x86_64_8.0.0/ARMTools/bin/../lib/gcc/arm-atollic-eabi/6.3.1/armv7-ar/thumb/fpu/libgcc.a(_divsi3.o)
                              libmbed.a(serial_api.o) (__aeabi_idiv)
/opt/Atollic_TrueSTUDIO_for_ARM_x86_64_8.0.0/ARMTools/bin/../lib/gcc/arm-atollic-eabi/6.3.1/armv7-ar/thumb/fpu/libgcc.a(_dvmd_tls.o)
                              /opt/Atollic_TrueSTUDIO_for_ARM_x86_64_8.0.0/ARMTools/bin/../lib/gcc/arm-atollic-eabi/6.3.1/armv7-ar/thumb/fpu/libgcc.a(_udivsi3.o) (__aeabi_idiv0)
/opt/Atollic_TrueSTUDIO_for_ARM_x86_64_8.0.0/ARMTools/bin/../lib/gcc/arm-atollic-eabi/6.3.1/armv7-ar/thumb/fpu/libgcc.a(_arm_addsubdf3.o)
                              libmbed.a(us_ticker.o) (__aeabi_ul2d)
/opt/Atollic_TrueSTUDIO_for_ARM_x86_64_8.0.0/ARMTools/bin/../lib/gcc/arm-atollic-eabi/6.3.1/armv7-ar/thumb/fpu/libgcc.a(_fixunsdfdi.o)
                              libmbed.a(us_ticker.o) (__aeabi_d2ulz)
/opt/Atollic_TrueSTUDIO_for_ARM_x86_64_8.0.0/ARMTools/bin/../lib/gcc/arm-atollic-eabi/6.3.1/../../../../arm-atollic-eabi/lib/armv7-ar/thumb/fpu/libstdc++_nano.a(del_op.o)
                              blinky.o (operator delete(void*))
/opt/Atollic_TrueSTUDIO_for_ARM_x86_64_8.0.0/ARMTools/bin/../lib/gcc/arm-atollic-eabi/6.3.1/../../../../arm-atollic-eabi/lib/armv7-ar/thumb/fpu/libstdc++_nano.a(atexit_arm.o)
                              blinky.o (__aeabi_atexit)
/opt/Atollic_TrueSTUDIO_for_ARM_x86_64_8.0.0/ARMTools/bin/../lib/gcc/arm-atollic-eabi/6.3.1/../../../../arm-atollic-eabi/lib/armv7-ar/thumb/fpu/libstdc++_nano.a(new_op.o)
                              libmbed.a(FileSystemLike.o) (operator new(unsigned int))
/opt/Atollic_TrueSTUDIO_for_ARM_x86_64_8.0.0/ARMTools/bin/../lib/gcc/arm-atollic-eabi/6.3.1/../../../../arm-atollic-eabi/lib/armv7-ar/thumb/fpu/libstdc++_nano.a(new_handler.o)
                              /opt/Atollic_TrueSTUDIO_for_ARM_x86_64_8.0.0/ARMTools/bin/../lib/gcc/arm-atollic-eabi/6.3.1/../../../../arm-atollic-eabi/lib/armv7-ar/thumb/fpu/libstdc++_nano.a(new_op.o) (std::get_new_handler())
/opt/Atollic_TrueSTUDIO_for_ARM_x86_64_8.0.0/ARMTools/bin/../lib/gcc/arm-atollic-eabi/6.3.1/../../../../arm-atollic-eabi/lib/armv7-ar/thumb/fpu/libc_nano.a(lib_a-abort.o)
                              /opt/Atollic_TrueSTUDIO_for_ARM_x86_64_8.0.0/ARMTools/bin/../lib/gcc/arm-atollic-eabi/6.3.1/../../../../arm-atollic-eabi/lib/armv7-ar/thumb/fpu/libstdc++_nano.a(new_op.o) (abort)
/opt/Atollic_TrueSTUDIO_for_ARM_x86_64_8.0.0/ARMTools/bin/../lib/gcc/arm-atollic-eabi/6.3.1/../../../../arm-atollic-eabi/lib/armv7-ar/thumb/fpu/libc_nano.a(lib_a-cxa_atexit.o)
                              /opt/Atollic_TrueSTUDIO_for_ARM_x86_64_8.0.0/ARMTools/bin/../lib/gcc/arm-atollic-eabi/6.3.1/../../../../arm-atollic-eabi/lib/armv7-ar/thumb/fpu/libstdc++_nano.a(atexit_arm.o) (__cxa_atexit)
/opt/Atollic_TrueSTUDIO_for_ARM_x86_64_8.0.0/ARMTools/bin/../lib/gcc/arm-atollic-eabi/6.3.1/../../../../arm-atollic-eabi/lib/armv7-ar/thumb/fpu/libc_nano.a(lib_a-errno.o)
                              libmbed.a(retarget.o) (__errno)
/opt/Atollic_TrueSTUDIO_for_ARM_x86_64_8.0.0/ARMTools/bin/../lib/gcc/arm-atollic-eabi/6.3.1/../../../../arm-atollic-eabi/lib/armv7-ar/thumb/fpu/libc_nano.a(lib_a-exit.o)
                              libmbed.a(retarget.o) (exit)
/opt/Atollic_TrueSTUDIO_for_ARM_x86_64_8.0.0/ARMTools/bin/../lib/gcc/arm-atollic-eabi/6.3.1/../../../../arm-atollic-eabi/lib/armv7-ar/thumb/fpu/libc_nano.a(lib_a-fgetc.o)
                              libmbed.a(retarget.o) (fgetc)
/opt/Atollic_TrueSTUDIO_for_ARM_x86_64_8.0.0/ARMTools/bin/../lib/gcc/arm-atollic-eabi/6.3.1/../../../../arm-atollic-eabi/lib/armv7-ar/thumb/fpu/libc_nano.a(lib_a-fgets.o)
                              libmbed.a(retarget.o) (fgets)
/opt/Atollic_TrueSTUDIO_for_ARM_x86_64_8.0.0/ARMTools/bin/../lib/gcc/arm-atollic-eabi/6.3.1/../../../../arm-atollic-eabi/lib/armv7-ar/thumb/fpu/libc_nano.a(lib_a-findfp.o)
                              /opt/Atollic_TrueSTUDIO_for_ARM_x86_64_8.0.0/ARMTools/bin/../lib/gcc/arm-atollic-eabi/6.3.1/../../../../arm-atollic-eabi/lib/armv7-ar/thumb/fpu/libc_nano.a(lib_a-fgetc.o) (__sinit)
/opt/Atollic_TrueSTUDIO_for_ARM_x86_64_8.0.0/ARMTools/bin/../lib/gcc/arm-atollic-eabi/6.3.1/../../../../arm-atollic-eabi/lib/armv7-ar/thumb/fpu/libc_nano.a(lib_a-fwalk.o)
                              /opt/Atollic_TrueSTUDIO_for_ARM_x86_64_8.0.0/ARMTools/bin/../lib/gcc/arm-atollic-eabi/6.3.1/../../../../arm-atollic-eabi/lib/armv7-ar/thumb/fpu/libc_nano.a(lib_a-findfp.o) (_fwalk)
/opt/Atollic_TrueSTUDIO_for_ARM_x86_64_8.0.0/ARMTools/bin/../lib/gcc/arm-atollic-eabi/6.3.1/../../../../arm-atollic-eabi/lib/armv7-ar/thumb/fpu/libc_nano.a(lib_a-impure.o)
                              /opt/Atollic_TrueSTUDIO_for_ARM_x86_64_8.0.0/ARMTools/bin/../lib/gcc/arm-atollic-eabi/6.3.1/../../../../arm-atollic-eabi/lib/armv7-ar/thumb/fpu/libc_nano.a(lib_a-exit.o) (_global_impure_ptr)
/opt/Atollic_TrueSTUDIO_for_ARM_x86_64_8.0.0/ARMTools/bin/../lib/gcc/arm-atollic-eabi/6.3.1/../../../../arm-atollic-eabi/lib/armv7-ar/thumb/fpu/libc_nano.a(lib_a-malloc.o)
                              /opt/Atollic_TrueSTUDIO_for_ARM_x86_64_8.0.0/ARMTools/bin/../lib/gcc/arm-atollic-eabi/6.3.1/../../../../arm-atollic-eabi/lib/armv7-ar/thumb/fpu/libstdc++_nano.a(new_op.o) (malloc)
/opt/Atollic_TrueSTUDIO_for_ARM_x86_64_8.0.0/ARMTools/bin/../lib/gcc/arm-atollic-eabi/6.3.1/../../../../arm-atollic-eabi/lib/armv7-ar/thumb/fpu/libc_nano.a(lib_a-memchr-stub.o)
                              /opt/Atollic_TrueSTUDIO_for_ARM_x86_64_8.0.0/ARMTools/bin/../lib/gcc/arm-atollic-eabi/6.3.1/../../../../arm-atollic-eabi/lib/armv7-ar/thumb/fpu/libc_nano.a(lib_a-fgets.o) (memchr)
/opt/Atollic_TrueSTUDIO_for_ARM_x86_64_8.0.0/ARMTools/bin/../lib/gcc/arm-atollic-eabi/6.3.1/../../../../arm-atollic-eabi/lib/armv7-ar/thumb/fpu/libc_nano.a(lib_a-memcpy-stub.o)
                              libmbed.a(serial_api.o) (memcpy)
/opt/Atollic_TrueSTUDIO_for_ARM_x86_64_8.0.0/ARMTools/bin/../lib/gcc/arm-atollic-eabi/6.3.1/../../../../arm-atollic-eabi/lib/armv7-ar/thumb/fpu/libc_nano.a(lib_a-memset.o)
                              libmbed.a(FileSystemLike.o) (memset)
/opt/Atollic_TrueSTUDIO_for_ARM_x86_64_8.0.0/ARMTools/bin/../lib/gcc/arm-atollic-eabi/6.3.1/../../../../arm-atollic-eabi/lib/armv7-ar/thumb/fpu/libc_nano.a(lib_a-nano-freer.o)
                              /opt/Atollic_TrueSTUDIO_for_ARM_x86_64_8.0.0/ARMTools/bin/../lib/gcc/arm-atollic-eabi/6.3.1/../../../../arm-atollic-eabi/lib/armv7-ar/thumb/fpu/libc_nano.a(lib_a-malloc.o) (_free_r)
/opt/Atollic_TrueSTUDIO_for_ARM_x86_64_8.0.0/ARMTools/bin/../lib/gcc/arm-atollic-eabi/6.3.1/../../../../arm-atollic-eabi/lib/armv7-ar/thumb/fpu/libc_nano.a(lib_a-nano-mallocr.o)
                              /opt/Atollic_TrueSTUDIO_for_ARM_x86_64_8.0.0/ARMTools/bin/../lib/gcc/arm-atollic-eabi/6.3.1/../../../../arm-atollic-eabi/lib/armv7-ar/thumb/fpu/libc_nano.a(lib_a-findfp.o) (_malloc_r)
/opt/Atollic_TrueSTUDIO_for_ARM_x86_64_8.0.0/ARMTools/bin/../lib/gcc/arm-atollic-eabi/6.3.1/../../../../arm-atollic-eabi/lib/armv7-ar/thumb/fpu/libc_nano.a(lib_a-nano-vfprintf_float.o)
                              (_printf_float)
/opt/Atollic_TrueSTUDIO_for_ARM_x86_64_8.0.0/ARMTools/bin/../lib/gcc/arm-atollic-eabi/6.3.1/../../../../arm-atollic-eabi/lib/armv7-ar/thumb/fpu/libc_nano.a(lib_a-nano-vfprintf_i.o)
                              /opt/Atollic_TrueSTUDIO_for_ARM_x86_64_8.0.0/ARMTools/bin/../lib/gcc/arm-atollic-eabi/6.3.1/../../../../arm-atollic-eabi/lib/armv7-ar/thumb/fpu/libc_nano.a(lib_a-nano-vfprintf_float.o) (_printf_common)
/opt/Atollic_TrueSTUDIO_for_ARM_x86_64_8.0.0/ARMTools/bin/../lib/gcc/arm-atollic-eabi/6.3.1/../../../../arm-atollic-eabi/lib/armv7-ar/thumb/fpu/libc_nano.a(lib_a-nano-vfscanf_float.o)
                              (_scanf_float)
/opt/Atollic_TrueSTUDIO_for_ARM_x86_64_8.0.0/ARMTools/bin/../lib/gcc/arm-atollic-eabi/6.3.1/../../../../arm-atollic-eabi/lib/armv7-ar/thumb/fpu/libc_nano.a(lib_a-on_exit_args.o)
                              /opt/Atollic_TrueSTUDIO_for_ARM_x86_64_8.0.0/ARMTools/bin/../lib/gcc/arm-atollic-eabi/6.3.1/../../../../arm-atollic-eabi/lib/armv7-ar/thumb/fpu/libc_nano.a(lib_a-cxa_atexit.o) (__on_exit_args)
/opt/Atollic_TrueSTUDIO_for_ARM_x86_64_8.0.0/ARMTools/bin/../lib/gcc/arm-atollic-eabi/6.3.1/../../../../arm-atollic-eabi/lib/armv7-ar/thumb/fpu/libc_nano.a(lib_a-reent.o)
                              libmbed.a(retarget.o) (errno)
/opt/Atollic_TrueSTUDIO_for_ARM_x86_64_8.0.0/ARMTools/bin/../lib/gcc/arm-atollic-eabi/6.3.1/../../../../arm-atollic-eabi/lib/armv7-ar/thumb/fpu/libc_nano.a(lib_a-refill.o)
                              /opt/Atollic_TrueSTUDIO_for_ARM_x86_64_8.0.0/ARMTools/bin/../lib/gcc/arm-atollic-eabi/6.3.1/../../../../arm-atollic-eabi/lib/armv7-ar/thumb/fpu/libc_nano.a(lib_a-fgets.o) (__srefill_r)
/opt/Atollic_TrueSTUDIO_for_ARM_x86_64_8.0.0/ARMTools/bin/../lib/gcc/arm-atollic-eabi/6.3.1/../../../../arm-atollic-eabi/lib/armv7-ar/thumb/fpu/libc_nano.a(lib_a-rget.o)
                              /opt/Atollic_TrueSTUDIO_for_ARM_x86_64_8.0.0/ARMTools/bin/../lib/gcc/arm-atollic-eabi/6.3.1/../../../../arm-atollic-eabi/lib/armv7-ar/thumb/fpu/libc_nano.a(lib_a-fgetc.o) (__srget_r)
/opt/Atollic_TrueSTUDIO_for_ARM_x86_64_8.0.0/ARMTools/bin/../lib/gcc/arm-atollic-eabi/6.3.1/../../../../arm-atollic-eabi/lib/armv7-ar/thumb/fpu/libc_nano.a(lib_a-sbrkr.o)
                              /opt/Atollic_TrueSTUDIO_for_ARM_x86_64_8.0.0/ARMTools/bin/../lib/gcc/arm-atollic-eabi/6.3.1/../../../../arm-atollic-eabi/lib/armv7-ar/thumb/fpu/libc_nano.a(lib_a-nano-mallocr.o) (_sbrk_r)
/opt/Atollic_TrueSTUDIO_for_ARM_x86_64_8.0.0/ARMTools/bin/../lib/gcc/arm-atollic-eabi/6.3.1/../../../../arm-atollic-eabi/lib/armv7-ar/thumb/fpu/libc_nano.a(lib_a-setbuf.o)
                              libmbed.a(retarget.o) (setbuf)
/opt/Atollic_TrueSTUDIO_for_ARM_x86_64_8.0.0/ARMTools/bin/../lib/gcc/arm-atollic-eabi/6.3.1/../../../../arm-atollic-eabi/lib/armv7-ar/thumb/fpu/libc_nano.a(lib_a-setvbuf.o)
                              /opt/Atollic_TrueSTUDIO_for_ARM_x86_64_8.0.0/ARMTools/bin/../lib/gcc/arm-atollic-eabi/6.3.1/../../../../arm-atollic-eabi/lib/armv7-ar/thumb/fpu/libc_nano.a(lib_a-setbuf.o) (setvbuf)
/opt/Atollic_TrueSTUDIO_for_ARM_x86_64_8.0.0/ARMTools/bin/../lib/gcc/arm-atollic-eabi/6.3.1/../../../../arm-atollic-eabi/lib/armv7-ar/thumb/fpu/libc_nano.a(lib_a-sf_nan.o)
                              /opt/Atollic_TrueSTUDIO_for_ARM_x86_64_8.0.0/ARMTools/bin/../lib/gcc/arm-atollic-eabi/6.3.1/../../../../arm-atollic-eabi/lib/armv7-ar/thumb/fpu/libc_nano.a(lib_a-nano-vfscanf_float.o) (nanf)
/opt/Atollic_TrueSTUDIO_for_ARM_x86_64_8.0.0/ARMTools/bin/../lib/gcc/arm-atollic-eabi/6.3.1/../../../../arm-atollic-eabi/lib/armv7-ar/thumb/fpu/libc_nano.a(lib_a-signal.o)
                              /opt/Atollic_TrueSTUDIO_for_ARM_x86_64_8.0.0/ARMTools/bin/../lib/gcc/arm-atollic-eabi/6.3.1/../../../../arm-atollic-eabi/lib/armv7-ar/thumb/fpu/libc_nano.a(lib_a-abort.o) (raise)
/opt/Atollic_TrueSTUDIO_for_ARM_x86_64_8.0.0/ARMTools/bin/../lib/gcc/arm-atollic-eabi/6.3.1/../../../../arm-atollic-eabi/lib/armv7-ar/thumb/fpu/libc_nano.a(lib_a-signalr.o)
                              /opt/Atollic_TrueSTUDIO_for_ARM_x86_64_8.0.0/ARMTools/bin/../lib/gcc/arm-atollic-eabi/6.3.1/../../../../arm-atollic-eabi/lib/armv7-ar/thumb/fpu/libc_nano.a(lib_a-signal.o) (_kill_r)
/opt/Atollic_TrueSTUDIO_for_ARM_x86_64_8.0.0/ARMTools/bin/../lib/gcc/arm-atollic-eabi/6.3.1/../../../../arm-atollic-eabi/lib/armv7-ar/thumb/fpu/libc_nano.a(lib_a-sprintf.o)
                              /opt/Atollic_TrueSTUDIO_for_ARM_x86_64_8.0.0/ARMTools/bin/../lib/gcc/arm-atollic-eabi/6.3.1/../../../../arm-atollic-eabi/lib/armv7-ar/thumb/fpu/libc_nano.a(lib_a-nano-vfscanf_float.o) (sprintf)
/opt/Atollic_TrueSTUDIO_for_ARM_x86_64_8.0.0/ARMTools/bin/../lib/gcc/arm-atollic-eabi/6.3.1/../../../../arm-atollic-eabi/lib/armv7-ar/thumb/fpu/libc_nano.a(lib_a-sscanf.o)
                              libmbed.a(retarget.o) (sscanf)
/opt/Atollic_TrueSTUDIO_for_ARM_x86_64_8.0.0/ARMTools/bin/../lib/gcc/arm-atollic-eabi/6.3.1/../../../../arm-atollic-eabi/lib/armv7-ar/thumb/fpu/libc_nano.a(lib_a-stdio.o)
                              /opt/Atollic_TrueSTUDIO_for_ARM_x86_64_8.0.0/ARMTools/bin/../lib/gcc/arm-atollic-eabi/6.3.1/../../../../arm-atollic-eabi/lib/armv7-ar/thumb/fpu/libc_nano.a(lib_a-findfp.o) (__sread)
/opt/Atollic_TrueSTUDIO_for_ARM_x86_64_8.0.0/ARMTools/bin/../lib/gcc/arm-atollic-eabi/6.3.1/../../../../arm-atollic-eabi/lib/armv7-ar/thumb/fpu/libc_nano.a(lib_a-strcmp.o)
                              libmbed.a(retarget.o) (strcmp)
/opt/Atollic_TrueSTUDIO_for_ARM_x86_64_8.0.0/ARMTools/bin/../lib/gcc/arm-atollic-eabi/6.3.1/../../../../arm-atollic-eabi/lib/armv7-ar/thumb/fpu/libc_nano.a(lib_a-strlen.o)
                              libmbed.a(FileBase.o) (strlen)
/opt/Atollic_TrueSTUDIO_for_ARM_x86_64_8.0.0/ARMTools/bin/../lib/gcc/arm-atollic-eabi/6.3.1/../../../../arm-atollic-eabi/lib/armv7-ar/thumb/fpu/libc_nano.a(lib_a-strncmp.o)
                              libmbed.a(FileBase.o) (strncmp)
/opt/Atollic_TrueSTUDIO_for_ARM_x86_64_8.0.0/ARMTools/bin/../lib/gcc/arm-atollic-eabi/6.3.1/../../../../arm-atollic-eabi/lib/armv7-ar/thumb/fpu/libc_nano.a(lib_a-strncpy.o)
                              libmbed.a(FileSystemLike.o) (strncpy)
/opt/Atollic_TrueSTUDIO_for_ARM_x86_64_8.0.0/ARMTools/bin/../lib/gcc/arm-atollic-eabi/6.3.1/../../../../arm-atollic-eabi/lib/armv7-ar/thumb/fpu/libc_nano.a(lib_a-strtod.o)
                              /opt/Atollic_TrueSTUDIO_for_ARM_x86_64_8.0.0/ARMTools/bin/../lib/gcc/arm-atollic-eabi/6.3.1/../../../../arm-atollic-eabi/lib/armv7-ar/thumb/fpu/libc_nano.a(lib_a-nano-vfscanf_float.o) (_strtod_r)
/opt/Atollic_TrueSTUDIO_for_ARM_x86_64_8.0.0/ARMTools/bin/../lib/gcc/arm-atollic-eabi/6.3.1/../../../../arm-atollic-eabi/lib/armv7-ar/thumb/fpu/libc_nano.a(lib_a-strtol.o)
                              /opt/Atollic_TrueSTUDIO_for_ARM_x86_64_8.0.0/ARMTools/bin/../lib/gcc/arm-atollic-eabi/6.3.1/../../../../arm-atollic-eabi/lib/armv7-ar/thumb/fpu/libc_nano.a(lib_a-nano-vfscanf_float.o) (_strtol_r)
/opt/Atollic_TrueSTUDIO_for_ARM_x86_64_8.0.0/ARMTools/bin/../lib/gcc/arm-atollic-eabi/6.3.1/../../../../arm-atollic-eabi/lib/armv7-ar/thumb/fpu/libc_nano.a(lib_a-writer.o)
                              /opt/Atollic_TrueSTUDIO_for_ARM_x86_64_8.0.0/ARMTools/bin/../lib/gcc/arm-atollic-eabi/6.3.1/../../../../arm-atollic-eabi/lib/armv7-ar/thumb/fpu/libc_nano.a(lib_a-stdio.o) (_write_r)
/opt/Atollic_TrueSTUDIO_for_ARM_x86_64_8.0.0/ARMTools/bin/../lib/gcc/arm-atollic-eabi/6.3.1/../../../../arm-atollic-eabi/lib/armv7-ar/thumb/fpu/libc_nano.a(lib_a-closer.o)
                              /opt/Atollic_TrueSTUDIO_for_ARM_x86_64_8.0.0/ARMTools/bin/../lib/gcc/arm-atollic-eabi/6.3.1/../../../../arm-atollic-eabi/lib/armv7-ar/thumb/fpu/libc_nano.a(lib_a-stdio.o) (_close_r)
/opt/Atollic_TrueSTUDIO_for_ARM_x86_64_8.0.0/ARMTools/bin/../lib/gcc/arm-atollic-eabi/6.3.1/../../../../arm-atollic-eabi/lib/armv7-ar/thumb/fpu/libc_nano.a(lib_a-dtoa.o)
                              /opt/Atollic_TrueSTUDIO_for_ARM_x86_64_8.0.0/ARMTools/bin/../lib/gcc/arm-atollic-eabi/6.3.1/../../../../arm-atollic-eabi/lib/armv7-ar/thumb/fpu/libc_nano.a(lib_a-nano-vfprintf_float.o) (_dtoa_r)
/opt/Atollic_TrueSTUDIO_for_ARM_x86_64_8.0.0/ARMTools/bin/../lib/gcc/arm-atollic-eabi/6.3.1/../../../../arm-atollic-eabi/lib/armv7-ar/thumb/fpu/libc_nano.a(lib_a-fflush.o)
                              /opt/Atollic_TrueSTUDIO_for_ARM_x86_64_8.0.0/ARMTools/bin/../lib/gcc/arm-atollic-eabi/6.3.1/../../../../arm-atollic-eabi/lib/armv7-ar/thumb/fpu/libc_nano.a(lib_a-refill.o) (__sflush_r)
/opt/Atollic_TrueSTUDIO_for_ARM_x86_64_8.0.0/ARMTools/bin/../lib/gcc/arm-atollic-eabi/6.3.1/../../../../arm-atollic-eabi/lib/armv7-ar/thumb/fpu/libc_nano.a(lib_a-gdtoa-gethex.o)
                              /opt/Atollic_TrueSTUDIO_for_ARM_x86_64_8.0.0/ARMTools/bin/../lib/gcc/arm-atollic-eabi/6.3.1/../../../../arm-atollic-eabi/lib/armv7-ar/thumb/fpu/libc_nano.a(lib_a-strtod.o) (__gethex)
/opt/Atollic_TrueSTUDIO_for_ARM_x86_64_8.0.0/ARMTools/bin/../lib/gcc/arm-atollic-eabi/6.3.1/../../../../arm-atollic-eabi/lib/armv7-ar/thumb/fpu/libc_nano.a(lib_a-gdtoa-hexnan.o)
                              /opt/Atollic_TrueSTUDIO_for_ARM_x86_64_8.0.0/ARMTools/bin/../lib/gcc/arm-atollic-eabi/6.3.1/../../../../arm-atollic-eabi/lib/armv7-ar/thumb/fpu/libc_nano.a(lib_a-strtod.o) (__match)
/opt/Atollic_TrueSTUDIO_for_ARM_x86_64_8.0.0/ARMTools/bin/../lib/gcc/arm-atollic-eabi/6.3.1/../../../../arm-atollic-eabi/lib/armv7-ar/thumb/fpu/libc_nano.a(lib_a-locale.o)
                              /opt/Atollic_TrueSTUDIO_for_ARM_x86_64_8.0.0/ARMTools/bin/../lib/gcc/arm-atollic-eabi/6.3.1/../../../../arm-atollic-eabi/lib/armv7-ar/thumb/fpu/libc_nano.a(lib_a-strtol.o) (__locale_ctype_ptr_l)
/opt/Atollic_TrueSTUDIO_for_ARM_x86_64_8.0.0/ARMTools/bin/../lib/gcc/arm-atollic-eabi/6.3.1/../../../../arm-atollic-eabi/lib/armv7-ar/thumb/fpu/libc_nano.a(lib_a-localeconv.o)
                              /opt/Atollic_TrueSTUDIO_for_ARM_x86_64_8.0.0/ARMTools/bin/../lib/gcc/arm-atollic-eabi/6.3.1/../../../../arm-atollic-eabi/lib/armv7-ar/thumb/fpu/libc_nano.a(lib_a-strtod.o) (__localeconv_l)
/opt/Atollic_TrueSTUDIO_for_ARM_x86_64_8.0.0/ARMTools/bin/../lib/gcc/arm-atollic-eabi/6.3.1/../../../../arm-atollic-eabi/lib/armv7-ar/thumb/fpu/libc_nano.a(lib_a-lseekr.o)
                              /opt/Atollic_TrueSTUDIO_for_ARM_x86_64_8.0.0/ARMTools/bin/../lib/gcc/arm-atollic-eabi/6.3.1/../../../../arm-atollic-eabi/lib/armv7-ar/thumb/fpu/libc_nano.a(lib_a-stdio.o) (_lseek_r)
/opt/Atollic_TrueSTUDIO_for_ARM_x86_64_8.0.0/ARMTools/bin/../lib/gcc/arm-atollic-eabi/6.3.1/../../../../arm-atollic-eabi/lib/armv7-ar/thumb/fpu/libc_nano.a(lib_a-makebuf.o)
                              /opt/Atollic_TrueSTUDIO_for_ARM_x86_64_8.0.0/ARMTools/bin/../lib/gcc/arm-atollic-eabi/6.3.1/../../../../arm-atollic-eabi/lib/armv7-ar/thumb/fpu/libc_nano.a(lib_a-setvbuf.o) (__swhatbuf_r)
/opt/Atollic_TrueSTUDIO_for_ARM_x86_64_8.0.0/ARMTools/bin/../lib/gcc/arm-atollic-eabi/6.3.1/../../../../arm-atollic-eabi/lib/armv7-ar/thumb/fpu/libc_nano.a(lib_a-mbtowc_r.o)
                              /opt/Atollic_TrueSTUDIO_for_ARM_x86_64_8.0.0/ARMTools/bin/../lib/gcc/arm-atollic-eabi/6.3.1/../../../../arm-atollic-eabi/lib/armv7-ar/thumb/fpu/libc_nano.a(lib_a-locale.o) (__ascii_mbtowc)
/opt/Atollic_TrueSTUDIO_for_ARM_x86_64_8.0.0/ARMTools/bin/../lib/gcc/arm-atollic-eabi/6.3.1/../../../../arm-atollic-eabi/lib/armv7-ar/thumb/fpu/libc_nano.a(lib_a-mlock.o)
                              /opt/Atollic_TrueSTUDIO_for_ARM_x86_64_8.0.0/ARMTools/bin/../lib/gcc/arm-atollic-eabi/6.3.1/../../../../arm-atollic-eabi/lib/armv7-ar/thumb/fpu/libc_nano.a(lib_a-nano-freer.o) (__malloc_lock)
/opt/Atollic_TrueSTUDIO_for_ARM_x86_64_8.0.0/ARMTools/bin/../lib/gcc/arm-atollic-eabi/6.3.1/../../../../arm-atollic-eabi/lib/armv7-ar/thumb/fpu/libc_nano.a(lib_a-mprec.o)
                              /opt/Atollic_TrueSTUDIO_for_ARM_x86_64_8.0.0/ARMTools/bin/../lib/gcc/arm-atollic-eabi/6.3.1/../../../../arm-atollic-eabi/lib/armv7-ar/thumb/fpu/libc_nano.a(lib_a-strtod.o) (_Balloc)
/opt/Atollic_TrueSTUDIO_for_ARM_x86_64_8.0.0/ARMTools/bin/../lib/gcc/arm-atollic-eabi/6.3.1/../../../../arm-atollic-eabi/lib/armv7-ar/thumb/fpu/libc_nano.a(lib_a-nano-callocr.o)
                              /opt/Atollic_TrueSTUDIO_for_ARM_x86_64_8.0.0/ARMTools/bin/../lib/gcc/arm-atollic-eabi/6.3.1/../../../../arm-atollic-eabi/lib/armv7-ar/thumb/fpu/libc_nano.a(lib_a-mprec.o) (_calloc_r)
/opt/Atollic_TrueSTUDIO_for_ARM_x86_64_8.0.0/ARMTools/bin/../lib/gcc/arm-atollic-eabi/6.3.1/../../../../arm-atollic-eabi/lib/armv7-ar/thumb/fpu/libc_nano.a(lib_a-nano-svfprintf.o)
                              /opt/Atollic_TrueSTUDIO_for_ARM_x86_64_8.0.0/ARMTools/bin/../lib/gcc/arm-atollic-eabi/6.3.1/../../../../arm-atollic-eabi/lib/armv7-ar/thumb/fpu/libc_nano.a(lib_a-sprintf.o) (_svfprintf_r)
/opt/Atollic_TrueSTUDIO_for_ARM_x86_64_8.0.0/ARMTools/bin/../lib/gcc/arm-atollic-eabi/6.3.1/../../../../arm-atollic-eabi/lib/armv7-ar/thumb/fpu/libc_nano.a(lib_a-nano-svfscanf.o)
                              /opt/Atollic_TrueSTUDIO_for_ARM_x86_64_8.0.0/ARMTools/bin/../lib/gcc/arm-atollic-eabi/6.3.1/../../../../arm-atollic-eabi/lib/armv7-ar/thumb/fpu/libc_nano.a(lib_a-sscanf.o) (__ssvfscanf_r)
/opt/Atollic_TrueSTUDIO_for_ARM_x86_64_8.0.0/ARMTools/bin/../lib/gcc/arm-atollic-eabi/6.3.1/../../../../arm-atollic-eabi/lib/armv7-ar/thumb/fpu/libc_nano.a(lib_a-nano-vfscanf_i.o)
                              /opt/Atollic_TrueSTUDIO_for_ARM_x86_64_8.0.0/ARMTools/bin/../lib/gcc/arm-atollic-eabi/6.3.1/../../../../arm-atollic-eabi/lib/armv7-ar/thumb/fpu/libc_nano.a(lib_a-nano-svfscanf.o) (_scanf_chars)
/opt/Atollic_TrueSTUDIO_for_ARM_x86_64_8.0.0/ARMTools/bin/../lib/gcc/arm-atollic-eabi/6.3.1/../../../../arm-atollic-eabi/lib/armv7-ar/thumb/fpu/libc_nano.a(lib_a-readr.o)
                              /opt/Atollic_TrueSTUDIO_for_ARM_x86_64_8.0.0/ARMTools/bin/../lib/gcc/arm-atollic-eabi/6.3.1/../../../../arm-atollic-eabi/lib/armv7-ar/thumb/fpu/libc_nano.a(lib_a-stdio.o) (_read_r)
/opt/Atollic_TrueSTUDIO_for_ARM_x86_64_8.0.0/ARMTools/bin/../lib/gcc/arm-atollic-eabi/6.3.1/../../../../arm-atollic-eabi/lib/armv7-ar/thumb/fpu/libc_nano.a(lib_a-sccl.o)
                              /opt/Atollic_TrueSTUDIO_for_ARM_x86_64_8.0.0/ARMTools/bin/../lib/gcc/arm-atollic-eabi/6.3.1/../../../../arm-atollic-eabi/lib/armv7-ar/thumb/fpu/libc_nano.a(lib_a-nano-svfscanf.o) (__sccl)
/opt/Atollic_TrueSTUDIO_for_ARM_x86_64_8.0.0/ARMTools/bin/../lib/gcc/arm-atollic-eabi/6.3.1/../../../../arm-atollic-eabi/lib/armv7-ar/thumb/fpu/libc_nano.a(lib_a-strtoul.o)
                              /opt/Atollic_TrueSTUDIO_for_ARM_x86_64_8.0.0/ARMTools/bin/../lib/gcc/arm-atollic-eabi/6.3.1/../../../../arm-atollic-eabi/lib/armv7-ar/thumb/fpu/libc_nano.a(lib_a-nano-vfscanf_i.o) (_strtoul_r)
/opt/Atollic_TrueSTUDIO_for_ARM_x86_64_8.0.0/ARMTools/bin/../lib/gcc/arm-atollic-eabi/6.3.1/../../../../arm-atollic-eabi/lib/armv7-ar/thumb/fpu/libc_nano.a(lib_a-ungetc.o)
                              /opt/Atollic_TrueSTUDIO_for_ARM_x86_64_8.0.0/ARMTools/bin/../lib/gcc/arm-atollic-eabi/6.3.1/../../../../arm-atollic-eabi/lib/armv7-ar/thumb/fpu/libc_nano.a(lib_a-nano-svfscanf.o) (__submore)
/opt/Atollic_TrueSTUDIO_for_ARM_x86_64_8.0.0/ARMTools/bin/../lib/gcc/arm-atollic-eabi/6.3.1/../../../../arm-atollic-eabi/lib/armv7-ar/thumb/fpu/libc_nano.a(lib_a-wctomb_r.o)
                              /opt/Atollic_TrueSTUDIO_for_ARM_x86_64_8.0.0/ARMTools/bin/../lib/gcc/arm-atollic-eabi/6.3.1/../../../../arm-atollic-eabi/lib/armv7-ar/thumb/fpu/libc_nano.a(lib_a-locale.o) (__ascii_wctomb)
/opt/Atollic_TrueSTUDIO_for_ARM_x86_64_8.0.0/ARMTools/bin/../lib/gcc/arm-atollic-eabi/6.3.1/../../../../arm-atollic-eabi/lib/armv7-ar/thumb/fpu/libc_nano.a(lib_a-ctype_.o)
                              /opt/Atollic_TrueSTUDIO_for_ARM_x86_64_8.0.0/ARMTools/bin/../lib/gcc/arm-atollic-eabi/6.3.1/../../../../arm-atollic-eabi/lib/armv7-ar/thumb/fpu/libc_nano.a(lib_a-locale.o) (_ctype_)
/opt/Atollic_TrueSTUDIO_for_ARM_x86_64_8.0.0/ARMTools/bin/../lib/gcc/arm-atollic-eabi/6.3.1/../../../../arm-atollic-eabi/lib/armv7-ar/thumb/fpu/libc_nano.a(lib_a-fstatr.o)
                              /opt/Atollic_TrueSTUDIO_for_ARM_x86_64_8.0.0/ARMTools/bin/../lib/gcc/arm-atollic-eabi/6.3.1/../../../../arm-atollic-eabi/lib/armv7-ar/thumb/fpu/libc_nano.a(lib_a-makebuf.o) (_fstat_r)
/opt/Atollic_TrueSTUDIO_for_ARM_x86_64_8.0.0/ARMTools/bin/../lib/gcc/arm-atollic-eabi/6.3.1/../../../../arm-atollic-eabi/lib/armv7-ar/thumb/fpu/libc_nano.a(lib_a-isattyr.o)
                              /opt/Atollic_TrueSTUDIO_for_ARM_x86_64_8.0.0/ARMTools/bin/../lib/gcc/arm-atollic-eabi/6.3.1/../../../../arm-atollic-eabi/lib/armv7-ar/thumb/fpu/libc_nano.a(lib_a-makebuf.o) (_isatty_r)
/opt/Atollic_TrueSTUDIO_for_ARM_x86_64_8.0.0/ARMTools/bin/../lib/gcc/arm-atollic-eabi/6.3.1/../../../../arm-atollic-eabi/lib/armv7-ar/thumb/fpu/libc_nano.a(lib_a-memmove.o)
                              /opt/Atollic_TrueSTUDIO_for_ARM_x86_64_8.0.0/ARMTools/bin/../lib/gcc/arm-atollic-eabi/6.3.1/../../../../arm-atollic-eabi/lib/armv7-ar/thumb/fpu/libc_nano.a(lib_a-nano-svfprintf.o) (memmove)
/opt/Atollic_TrueSTUDIO_for_ARM_x86_64_8.0.0/ARMTools/bin/../lib/gcc/arm-atollic-eabi/6.3.1/../../../../arm-atollic-eabi/lib/armv7-ar/thumb/fpu/libc_nano.a(lib_a-nano-reallocr.o)
                              /opt/Atollic_TrueSTUDIO_for_ARM_x86_64_8.0.0/ARMTools/bin/../lib/gcc/arm-atollic-eabi/6.3.1/../../../../arm-atollic-eabi/lib/armv7-ar/thumb/fpu/libc_nano.a(lib_a-nano-svfprintf.o) (_realloc_r)
/opt/Atollic_TrueSTUDIO_for_ARM_x86_64_8.0.0/ARMTools/bin/../lib/gcc/arm-atollic-eabi/6.3.1/../../../../arm-atollic-eabi/lib/armv7-ar/thumb/fpu/libc_nano.a(lib_a-nano-msizer.o)
                              /opt/Atollic_TrueSTUDIO_for_ARM_x86_64_8.0.0/ARMTools/bin/../lib/gcc/arm-atollic-eabi/6.3.1/../../../../arm-atollic-eabi/lib/armv7-ar/thumb/fpu/libc_nano.a(lib_a-nano-reallocr.o) (_malloc_usable_size_r)
/opt/Atollic_TrueSTUDIO_for_ARM_x86_64_8.0.0/ARMTools/bin/../lib/gcc/arm-atollic-eabi/6.3.1/../../../../arm-atollic-eabi/lib/armv7-ar/thumb/fpu/libnosys.a(getpid.o)
                              /opt/Atollic_TrueSTUDIO_for_ARM_x86_64_8.0.0/ARMTools/bin/../lib/gcc/arm-atollic-eabi/6.3.1/../../../../arm-atollic-eabi/lib/armv7-ar/thumb/fpu/libc_nano.a(lib_a-signalr.o) (_getpid)
/opt/Atollic_TrueSTUDIO_for_ARM_x86_64_8.0.0/ARMTools/bin/../lib/gcc/arm-atollic-eabi/6.3.1/../../../../arm-atollic-eabi/lib/armv7-ar/thumb/fpu/libnosys.a(kill.o)
                              /opt/Atollic_TrueSTUDIO_for_ARM_x86_64_8.0.0/ARMTools/bin/../lib/gcc/arm-atollic-eabi/6.3.1/../../../../arm-atollic-eabi/lib/armv7-ar/thumb/fpu/libc_nano.a(lib_a-signalr.o) (_kill)

Allocating common symbols
Common symbol       size              file

_kernel_cyccb_table
                    0x0               kernel_cfg.o
_kernel_p_schedtsk  0x4               ./libkernel.a(task.o)
_kernel_pdqinib_table
                    0x0               kernel_cfg.o
_kernel_monotonic_evttim
                    0x4               ./libkernel.a(time_event.o)
_kernel_mtxcb_table
                    0x0               kernel_cfg.o
tSCIF_CB_tab        0x8               tSCIF_tecsgen.o
errno               0x4               /opt/Atollic_TrueSTUDIO_for_ARM_x86_64_8.0.0/ARMTools/bin/../lib/gcc/arm-atollic-eabi/6.3.1/../../../../arm-atollic-eabi/lib/armv7-ar/thumb/fpu/libc_nano.a(lib_a-reent.o)
_kernel_in_signal_time
                    0x4               ./libkernel.a(time_event.o)
_kernel_pdqcb_table
                    0x0               kernel_cfg.o
_kernel_boundary_evttim
                    0x4               ./libkernel.a(time_event.o)
_kernel_dtqinib_table
                    0x0               kernel_cfg.o
_kernel_current_evttim
                    0x4               ./libkernel.a(time_event.o)
_kernel_dtqcb_table
                    0x0               kernel_cfg.o
_kernel_ready_queue
                    0x80              ./libkernel.a(task.o)
_kernel_semcb_table
                    0x20              kernel_cfg.o
_kernel_alminib_table
                    0x0               kernel_cfg.o
_kernel_flginib_table
                    0x0               kernel_cfg.o
_kernel_tmevt_heap  0x10              kernel_cfg.o
_kernel_dspflg      0x4               ./libkernel.a(task.o)
tSerialPortMain_SerialPort1_SerialPortMain_CB_receiveBuffer_INIT
                    0x100             tSerialPortMain_tecsgen.o
_kernel_ready_primap
                    0x2               ./libkernel.a(task.o)
_kernel_almcb_table
                    0x0               kernel_cfg.o
_kernel_mtxinib_table
                    0x0               kernel_cfg.o
_kernel_current_hrtcnt
                    0x4               ./libkernel.a(time_event.o)
_kernel_cycinib_table
                    0x0               kernel_cfg.o
_kernel_p_runtsk    0x4               ./libkernel.a(task.o)
_kernel_mpfcb_table
                    0x0               kernel_cfg.o
_kernel_tcb_table   0x60              kernel_cfg.o
_kernel_excpt_nest_count
                    0x4               ./libkernel.a(core_kernel_impl.o)
_kernel_enadsp      0x4               ./libkernel.a(task.o)
_kernel_mpfinib_table
                    0x0               kernel_cfg.o
tSysLog_SINGLE_CELL_CB
                    0x1c              tSysLog_tecsgen.o
tSerialPortMain_SerialPort1_SerialPortMain_CB_sendBuffer_INIT
                    0x100             tSerialPortMain_tecsgen.o
_kernel_systim_offset
                    0x8               ./libkernel.a(time_event.o)
tSysLog_SINGLE_CELL_CB_logBuffer_INIT
                    0x400             tSysLog_tecsgen.o
_kernel_flgcb_table
                    0x0               kernel_cfg.o
tSerialPortMain_CB_tab
                    0x34              tSerialPortMain_tecsgen.o

Discarded input sections

 .data          0x0000000000000000        0x0 start.o
 .bss           0x0000000000000000        0x0 start.o
 .data          0x0000000000000000        0x0 log_output.o
 .bss           0x0000000000000000        0x0 log_output.o
 .text          0x0000000000000000      0x344 vasyslog.o
 .data          0x0000000000000000        0x0 vasyslog.o
 .bss           0x0000000000000000        0x0 vasyslog.o
 .debug_info    0x0000000000000000      0x1bd vasyslog.o
 .debug_abbrev  0x0000000000000000       0xdf vasyslog.o
 .debug_aranges
                0x0000000000000000       0x20 vasyslog.o
 .debug_line    0x0000000000000000      0x247 vasyslog.o
 .debug_str     0x0000000000000000      0x238 vasyslog.o
 .comment       0x0000000000000000       0x7d vasyslog.o
 .debug_frame   0x0000000000000000       0x34 vasyslog.o
 .ARM.attributes
                0x0000000000000000       0x3d vasyslog.o
 .text          0x0000000000000000       0x90 t_perror.o
 .data          0x0000000000000000        0x0 t_perror.o
 .bss           0x0000000000000000        0x0 t_perror.o
 .rodata        0x0000000000000000       0x2d t_perror.o
 .debug_info    0x0000000000000000      0x1c1 t_perror.o
 .debug_abbrev  0x0000000000000000       0xba t_perror.o
 .debug_aranges
                0x0000000000000000       0x20 t_perror.o
 .debug_line    0x0000000000000000      0x155 t_perror.o
 .debug_str     0x0000000000000000      0x22d t_perror.o
 .comment       0x0000000000000000       0x7d t_perror.o
 .debug_frame   0x0000000000000000       0x30 t_perror.o
 .ARM.attributes
                0x0000000000000000       0x3d t_perror.o
 .text          0x0000000000000000      0x274 strerror.o
 .data          0x0000000000000000        0x0 strerror.o
 .bss           0x0000000000000000        0x0 strerror.o
 .rodata        0x0000000000000000       0xda strerror.o
 .debug_info    0x0000000000000000       0xe6 strerror.o
 .debug_abbrev  0x0000000000000000       0x7f strerror.o
 .debug_aranges
                0x0000000000000000       0x20 strerror.o
 .debug_line    0x0000000000000000      0x15e strerror.o
 .debug_str     0x0000000000000000      0x1c6 strerror.o
 .comment       0x0000000000000000       0x7d strerror.o
 .debug_frame   0x0000000000000000       0x34 strerror.o
 .ARM.attributes
                0x0000000000000000       0x3d strerror.o
 .group         0x0000000000000000        0x8 blinky.o
 .group         0x0000000000000000        0x8 blinky.o
 .group         0x0000000000000000        0x8 blinky.o
 .group         0x0000000000000000        0x8 blinky.o
 .group         0x0000000000000000        0x8 blinky.o
 .group         0x0000000000000000        0x8 blinky.o
 .group         0x0000000000000000        0x8 blinky.o
 .group         0x0000000000000000        0xc blinky.o
 .group         0x0000000000000000        0x8 blinky.o
 .group         0x0000000000000000        0x8 blinky.o
 .group         0x0000000000000000        0x8 blinky.o
 .group         0x0000000000000000        0xc blinky.o
 .group         0x0000000000000000        0x8 blinky.o
 .text          0x0000000000000000        0x0 blinky.o
 .data          0x0000000000000000        0x0 blinky.o
 .bss           0x0000000000000000        0x0 blinky.o
 .text          0x0000000000000000        0x0 sf_boot.o
 .data          0x0000000000000000        0x0 sf_boot.o
 .bss           0x0000000000000000        0x0 sf_boot.o
 .data          0x0000000000000000        0x0 tTask_tecsgen.o
 .bss           0x0000000000000000        0x0 tTask_tecsgen.o
 .data          0x0000000000000000        0x0 tSemaphore_tecsgen.o
 .bss           0x0000000000000000        0x0 tSemaphore_tecsgen.o
 .data          0x0000000000000000        0x0 tInterruptRequest_tecsgen.o
 .bss           0x0000000000000000        0x0 tInterruptRequest_tecsgen.o
 .data          0x0000000000000000        0x0 tISR_tecsgen.o
 .bss           0x0000000000000000        0x0 tISR_tecsgen.o
 .data          0x0000000000000000        0x0 tInitializeRoutine_tecsgen.o
 .bss           0x0000000000000000        0x0 tInitializeRoutine_tecsgen.o
 .data          0x0000000000000000        0x0 tTerminateRoutine_tecsgen.o
 .bss           0x0000000000000000        0x0 tTerminateRoutine_tecsgen.o
 .data          0x0000000000000000        0x0 tSerialPortMain_tecsgen.o
 .bss           0x0000000000000000        0x0 tSerialPortMain_tecsgen.o
 .data          0x0000000000000000        0x0 tSerialAdapter_tecsgen.o
 .bss           0x0000000000000000        0x0 tSerialAdapter_tecsgen.o
 .rodata        0x0000000000000000        0xc tSerialAdapter_tecsgen.o
 .data          0x0000000000000000        0x0 tSysLog_tecsgen.o
 .bss           0x0000000000000000        0x0 tSysLog_tecsgen.o
 .data          0x0000000000000000        0x0 tSysLogAdapter_tecsgen.o
 .bss           0x0000000000000000        0x0 tSysLogAdapter_tecsgen.o
 .data          0x0000000000000000        0x0 tLogTaskMain_tecsgen.o
 .bss           0x0000000000000000        0x0 tLogTaskMain_tecsgen.o
 .data          0x0000000000000000        0x0 tBannerMain_tecsgen.o
 .bss           0x0000000000000000        0x0 tBannerMain_tecsgen.o
 .data          0x0000000000000000        0x0 tPutLogGRPeach_tecsgen.o
 .bss           0x0000000000000000        0x0 tPutLogGRPeach_tecsgen.o
 .data          0x0000000000000000        0x0 tSCIF_tecsgen.o
 .bss           0x0000000000000000        0x0 tSCIF_tecsgen.o
 .data          0x0000000000000000        0x0 tSIOPortGRPeachMain_tecsgen.o
 .bss           0x0000000000000000        0x0 tSIOPortGRPeachMain_tecsgen.o
 .data          0x0000000000000000        0x0 tTask.o
 .bss           0x0000000000000000        0x0 tTask.o
 .data          0x0000000000000000        0x0 tISR.o
 .bss           0x0000000000000000        0x0 tISR.o
 .data          0x0000000000000000        0x0 tInitializeRoutine.o
 .bss           0x0000000000000000        0x0 tInitializeRoutine.o
 .data          0x0000000000000000        0x0 tTerminateRoutine.o
 .bss           0x0000000000000000        0x0 tTerminateRoutine.o
 .data          0x0000000000000000        0x0 tSerialPortMain.o
 .bss           0x0000000000000000        0x0 tSerialPortMain.o
 .text          0x0000000000000000      0x468 tSerialAdapter.o
 .data          0x0000000000000000        0x0 tSerialAdapter.o
 .bss           0x0000000000000000        0x0 tSerialAdapter.o
 .debug_info    0x0000000000000000      0x39e tSerialAdapter.o
 .debug_abbrev  0x0000000000000000      0x105 tSerialAdapter.o
 .debug_aranges
                0x0000000000000000       0x20 tSerialAdapter.o
 .debug_line    0x0000000000000000      0x11f tSerialAdapter.o
 .debug_str     0x0000000000000000      0x30f tSerialAdapter.o
 .comment       0x0000000000000000       0x7d tSerialAdapter.o
 .debug_frame   0x0000000000000000       0xd8 tSerialAdapter.o
 .ARM.attributes
                0x0000000000000000       0x3d tSerialAdapter.o
 .data          0x0000000000000000        0x0 tSysLog.o
 .bss           0x0000000000000000        0x0 tSysLog.o
 .data          0x0000000000000000        0x0 tSysLogAdapter.o
 .bss           0x0000000000000000        0x0 tSysLogAdapter.o
 .data          0x0000000000000000        0x0 tLogTaskMain.o
 .bss           0x0000000000000000        0x0 tLogTaskMain.o
 .data          0x0000000000000000        0x0 tBannerMain.o
 .bss           0x0000000000000000        0x0 tBannerMain.o
 .data          0x0000000000000000        0x0 tPutLogGRPeach.o
 .bss           0x0000000000000000        0x0 tPutLogGRPeach.o
 .data          0x0000000000000000        0x0 tSCIF.o
 .bss           0x0000000000000000        0x0 tSCIF.o
 .data          0x0000000000000000        0x0 init_tecs.o
 .bss           0x0000000000000000        0x0 init_tecs.o
 .data          0x0000000000000000        0x0 kernel_cfg.o
 .data          0x0000000000000000        0x0 libmbed.a(startup_RZ1AH.o)
 .bss           0x0000000000000000        0x0 libmbed.a(startup_RZ1AH.o)
 .text          0x0000000000000000        0x0 libmbed.a(RZ_A1_Init.o)
 .data          0x0000000000000000        0x0 libmbed.a(RZ_A1_Init.o)
 .bss           0x0000000000000000        0x0 libmbed.a(RZ_A1_Init.o)
 .text          0x0000000000000000        0x0 libmbed.a(mmu_Renesas_RZ_A1.o)
 .data          0x0000000000000000        0x0 libmbed.a(mmu_Renesas_RZ_A1.o)
 .bss           0x0000000000000000        0x0 libmbed.a(mmu_Renesas_RZ_A1.o)
 .text          0x0000000000000000        0x0 libmbed.a(system_MBRZA1H.o)
 .data          0x0000000000000000        0x0 libmbed.a(system_MBRZA1H.o)
 .bss           0x0000000000000000        0x0 libmbed.a(system_MBRZA1H.o)
 .bss.seen_id0_active
                0x0000000000000000        0x1 libmbed.a(system_MBRZA1H.o)
 .text.InterruptHandlerUnregister
                0x0000000000000000       0x50 libmbed.a(system_MBRZA1H.o)
 .text          0x0000000000000000        0x0 libmbed.a(gpio.o)
 .data          0x0000000000000000        0x0 libmbed.a(gpio.o)
 .bss           0x0000000000000000        0x0 libmbed.a(gpio.o)
 .text._gpio_init_in
                0x0000000000000000       0x60 libmbed.a(gpio.o)
 .text.gpio_init_in
                0x0000000000000000       0x34 libmbed.a(gpio.o)
 .text.gpio_init_in_ex
                0x0000000000000000       0x3c libmbed.a(gpio.o)
 .text.gpio_init_inout
                0x0000000000000000       0x84 libmbed.a(gpio.o)
 .text          0x0000000000000000        0x0 libmbed.a(common.o)
 .data          0x0000000000000000        0x0 libmbed.a(common.o)
 .bss           0x0000000000000000        0x0 libmbed.a(common.o)
 .group         0x0000000000000000        0xc libmbed.a(Timeout.o)
 .group         0x0000000000000000        0x8 libmbed.a(Timeout.o)
 .group         0x0000000000000000        0xc libmbed.a(Timeout.o)
 .text          0x0000000000000000        0x0 libmbed.a(Timeout.o)
 .data          0x0000000000000000        0x0 libmbed.a(Timeout.o)
 .bss           0x0000000000000000        0x0 libmbed.a(Timeout.o)
 .text._ZN4mbed6TickerD2Ev
                0x0000000000000000       0x40 libmbed.a(Timeout.o)
 .text._ZN4mbed6TickerD0Ev
                0x0000000000000000       0x2c libmbed.a(Timeout.o)
 .text._ZN4mbed7TimeoutD2Ev
                0x0000000000000000       0x38 libmbed.a(Timeout.o)
 .text._ZN4mbed7TimeoutD0Ev
                0x0000000000000000       0x2c libmbed.a(Timeout.o)
 .text          0x0000000000000000        0x0 libmbed.a(TimerEvent.o)
 .data          0x0000000000000000        0x0 libmbed.a(TimerEvent.o)
 .bss           0x0000000000000000        0x0 libmbed.a(TimerEvent.o)
 .text._ZN4mbed10TimerEventC2EPK13ticker_data_t
                0x0000000000000000       0x78 libmbed.a(TimerEvent.o)
 .text._ZN4mbed10TimerEventD0Ev
                0x0000000000000000       0x2c libmbed.a(TimerEvent.o)
 .group         0x0000000000000000        0x8 libmbed.a(retarget.o)
 .text          0x0000000000000000        0x0 libmbed.a(retarget.o)
 .data          0x0000000000000000        0x0 libmbed.a(retarget.o)
 .bss           0x0000000000000000        0x0 libmbed.a(retarget.o)
 .text._ZN4mbed10FileHandle4flenEv
                0x0000000000000000       0x98 libmbed.a(retarget.o)
 .rodata.__stdin_name
                0x0000000000000000        0x7 libmbed.a(retarget.o)
 .rodata.__stdout_name
                0x0000000000000000        0x8 libmbed.a(retarget.o)
 .rodata.__stderr_name
                0x0000000000000000        0x8 libmbed.a(retarget.o)
 .bss._ZL11filehandles
                0x0000000000000000      0x100 libmbed.a(retarget.o)
 .text._ZN4mbed10FileHandleD2Ev
                0x0000000000000000       0x7c libmbed.a(retarget.o)
 .text._ZN4mbed10FileHandleD0Ev
                0x0000000000000000       0x2c libmbed.a(retarget.o)
 .text._ZL11init_serialv
                0x0000000000000000       0x38 libmbed.a(retarget.o)
 .text._ZL17openmode_to_posixi
                0x0000000000000000       0x20 libmbed.a(retarget.o)
 .rodata        0x0000000000000000        0xe libmbed.a(retarget.o)
 .text._open    0x0000000000000000      0x244 libmbed.a(retarget.o)
 .text._close   0x0000000000000000       0x8c libmbed.a(retarget.o)
 .text._write   0x0000000000000000       0xec libmbed.a(retarget.o)
 .text._read    0x0000000000000000       0xc4 libmbed.a(retarget.o)
 .text._isatty  0x0000000000000000       0x74 libmbed.a(retarget.o)
 .text._lseek   0x0000000000000000       0x84 libmbed.a(retarget.o)
 .text._fstat   0x0000000000000000       0x68 libmbed.a(retarget.o)
 .text.remove   0x0000000000000000       0x7c libmbed.a(retarget.o)
 .text.rename   0x0000000000000000       0xc4 libmbed.a(retarget.o)
 .text.tmpnam   0x0000000000000000       0x18 libmbed.a(retarget.o)
 .text.tmpfile  0x0000000000000000        0xc libmbed.a(retarget.o)
 .text.opendir  0x0000000000000000       0xac libmbed.a(retarget.o)
 .text.readdir  0x0000000000000000       0x34 libmbed.a(retarget.o)
 .text.closedir
                0x0000000000000000       0x30 libmbed.a(retarget.o)
 .text.rewinddir
                0x0000000000000000       0x30 libmbed.a(retarget.o)
 .text.telldir  0x0000000000000000       0x34 libmbed.a(retarget.o)
 .text.seekdir  0x0000000000000000       0x38 libmbed.a(retarget.o)
 .text.mkdir    0x0000000000000000       0x84 libmbed.a(retarget.o)
 .text._ZN9__gnu_cxx27__verbose_terminate_handlerEv
                0x0000000000000000       0x18 libmbed.a(retarget.o)
 .text.mbed_main
                0x0000000000000000        0x8 libmbed.a(retarget.o)
 .text.mbed_sdk_init
                0x0000000000000000        0x8 libmbed.a(retarget.o)
 .text.__wrap_main
                0x0000000000000000       0x1c libmbed.a(retarget.o)
 .text._ZN4mbed26mbed_set_unbuffered_streamEP7__sFILE
                0x0000000000000000       0x24 libmbed.a(retarget.o)
 .text._ZN4mbed9mbed_getcEP7__sFILE
                0x0000000000000000       0x24 libmbed.a(retarget.o)
 .text._ZN4mbed9mbed_getsEPciP7__sFILE
                0x0000000000000000       0x34 libmbed.a(retarget.o)
 .rodata._ZTVN4mbed10FileHandleE
                0x0000000000000000       0x2c libmbed.a(retarget.o)
 .group         0x0000000000000000        0xc libmbed.a(Ticker.o)
 .group         0x0000000000000000        0x8 libmbed.a(Ticker.o)
 .group         0x0000000000000000        0x8 libmbed.a(Ticker.o)
 .text          0x0000000000000000        0x0 libmbed.a(Ticker.o)
 .data          0x0000000000000000        0x0 libmbed.a(Ticker.o)
 .bss           0x0000000000000000        0x0 libmbed.a(Ticker.o)
 .text._ZN4mbed6TickerD2Ev
                0x0000000000000000       0x40 libmbed.a(Ticker.o)
 .text._ZN4mbed6TickerD0Ev
                0x0000000000000000       0x2c libmbed.a(Ticker.o)
 .text._ZN4mbed19FunctionPointerArg1IvvE6attachEPFvvE
                0x0000000000000000       0x30 libmbed.a(Ticker.o)
 .text._ZN4mbed19FunctionPointerArg1IvvE4callEv
                0x0000000000000000       0x8c libmbed.a(Ticker.o)
 .group         0x0000000000000000        0x8 libmbed.a(SoftPWM.o)
 .group         0x0000000000000000        0x8 libmbed.a(SoftPWM.o)
 .group         0x0000000000000000        0x8 libmbed.a(SoftPWM.o)
 .group         0x0000000000000000        0x8 libmbed.a(SoftPWM.o)
 .group         0x0000000000000000        0x8 libmbed.a(SoftPWM.o)
 .group         0x0000000000000000        0x8 libmbed.a(SoftPWM.o)
 .group         0x0000000000000000        0x8 libmbed.a(SoftPWM.o)
 .group         0x0000000000000000        0x8 libmbed.a(SoftPWM.o)
 .group         0x0000000000000000        0x8 libmbed.a(SoftPWM.o)
 .group         0x0000000000000000        0x8 libmbed.a(SoftPWM.o)
 .group         0x0000000000000000        0x8 libmbed.a(SoftPWM.o)
 .text          0x0000000000000000        0x0 libmbed.a(SoftPWM.o)
 .data          0x0000000000000000        0x0 libmbed.a(SoftPWM.o)
 .bss           0x0000000000000000        0x0 libmbed.a(SoftPWM.o)
 .text.gpio_write
                0x0000000000000000       0x50 libmbed.a(SoftPWM.o)
 .text._ZN4mbed10DigitalOutC2E7PinName
                0x0000000000000000       0x5c libmbed.a(SoftPWM.o)
 .text._ZN4mbed10DigitalOut5writeEi
                0x0000000000000000       0x2c libmbed.a(SoftPWM.o)
 .text._ZN4mbed10DigitalOutaSEi
                0x0000000000000000       0x2c libmbed.a(SoftPWM.o)
 .text._ZN4mbed6TickerC2Ev
                0x0000000000000000       0x4c libmbed.a(SoftPWM.o)
 .text._ZN7SoftPWM4readEv
                0x0000000000000000       0x68 libmbed.a(SoftPWM.o)
 .text._ZN7SoftPWM5writeEf
                0x0000000000000000       0x74 libmbed.a(SoftPWM.o)
 .text._ZN7SoftPWM4stopEv
                0x0000000000000000       0x74 libmbed.a(SoftPWM.o)
 .text._ZN7SoftPWM9period_usEi
                0x0000000000000000       0x48 libmbed.a(SoftPWM.o)
 .text._ZN7SoftPWM10pulsewidthEf
                0x0000000000000000       0x48 libmbed.a(SoftPWM.o)
 .text._ZN7SoftPWM13pulsewidth_msEi
                0x0000000000000000       0x40 libmbed.a(SoftPWM.o)
 .text._ZN7SoftPWM13pulsewidth_usEi
                0x0000000000000000       0x40 libmbed.a(SoftPWM.o)
 .text._ZN4mbed19FunctionPointerArg1IvvEC2EPFvvE
                0x0000000000000000       0x2c libmbed.a(SoftPWM.o)
 .text._ZN4mbed19FunctionPointerArg1IvvE6attachEPFvvE
                0x0000000000000000       0x30 libmbed.a(SoftPWM.o)
 .data          0x0000000000000000        0x0 libmbed.a(cache.o)
 .bss           0x0000000000000000        0x0 libmbed.a(cache.o)
 .text          0x0000000000000000        0x0 libmbed.a(gic.o)
 .data          0x0000000000000000        0x0 libmbed.a(gic.o)
 .bss           0x0000000000000000        0x0 libmbed.a(gic.o)
 .rodata.GICDistributor_BASE
                0x0000000000000000        0x4 libmbed.a(gic.o)
 .rodata.GICInterface_BASE
                0x0000000000000000        0x4 libmbed.a(gic.o)
 .text.GIC_DistributorImplementer
                0x0000000000000000       0x14 libmbed.a(gic.o)
 .text.GIC_SetICDICFR
                0x0000000000000000       0x80 libmbed.a(gic.o)
 .text.GIC_GetTarget
                0x0000000000000000       0x5c libmbed.a(gic.o)
 .text.GIC_AcknowledgePending
                0x0000000000000000       0x18 libmbed.a(gic.o)
 .text.GIC_EndInterrupt
                0x0000000000000000       0x28 libmbed.a(gic.o)
 .text.GIC_SetLevelModel
                0x0000000000000000      0x10c libmbed.a(gic.o)
 .text.GIC_GetBinaryPoint
                0x0000000000000000       0x20 libmbed.a(gic.o)
 .text.GIC_GetIRQStatus
                0x0000000000000000       0x88 libmbed.a(gic.o)
 .text.GIC_SendSGI
                0x0000000000000000       0x54 libmbed.a(gic.o)
 .text          0x0000000000000000        0x0 libmbed.a(pl310.o)
 .data          0x0000000000000000        0x0 libmbed.a(pl310.o)
 .bss           0x0000000000000000        0x0 libmbed.a(pl310.o)
 .text.PL310_GetType
                0x0000000000000000       0x14 libmbed.a(pl310.o)
 .text.PL310_CleanInvAllByWay
                0x0000000000000000       0x8c libmbed.a(pl310.o)
 .text.PL310_Disable
                0x0000000000000000       0x20 libmbed.a(pl310.o)
 .text.PL310_InvPa
                0x0000000000000000       0x2c libmbed.a(pl310.o)
 .text.PL310_CleanPa
                0x0000000000000000       0x2c libmbed.a(pl310.o)
 .text.PL310_CleanInvPa
                0x0000000000000000       0x2c libmbed.a(pl310.o)
 .text          0x0000000000000000        0x0 libmbed.a(gpio_api.o)
 .data          0x0000000000000000        0x0 libmbed.a(gpio_api.o)
 .bss           0x0000000000000000        0x0 libmbed.a(gpio_api.o)
 .text          0x0000000000000000        0x0 libmbed.a(pinmap.o)
 .data          0x0000000000000000        0x0 libmbed.a(pinmap.o)
 .bss           0x0000000000000000        0x0 libmbed.a(pinmap.o)
 .text.pin_mode
                0x0000000000000000       0x24 libmbed.a(pinmap.o)
 .text          0x0000000000000000        0x0 libmbed.a(serial_api.o)
 .data          0x0000000000000000        0x0 libmbed.a(serial_api.o)
 .bss           0x0000000000000000        0x0 libmbed.a(serial_api.o)
 .rodata.PinMap_UART_TX
                0x0000000000000000       0xc0 libmbed.a(serial_api.o)
 .rodata.PinMap_UART_RX
                0x0000000000000000       0xc0 libmbed.a(serial_api.o)
 .rodata.PinMap_UART_CTS
                0x0000000000000000       0x30 libmbed.a(serial_api.o)
 .rodata.PinMap_UART_RTS
                0x0000000000000000       0x30 libmbed.a(serial_api.o)
 .data.SCIF     0x0000000000000000       0x20 libmbed.a(serial_api.o)
 .bss.irq_handler
                0x0000000000000000        0x4 libmbed.a(serial_api.o)
 .bss.stdio_uart_inited
                0x0000000000000000        0x4 libmbed.a(serial_api.o)
 .bss.stdio_uart
                0x0000000000000000        0x8 libmbed.a(serial_api.o)
 .bss.uart_data
                0x0000000000000000      0x1c0 libmbed.a(serial_api.o)
 .rodata.irq_set_tbl
                0x0000000000000000       0x20 libmbed.a(serial_api.o)
 .rodata.hander_set_tbl
                0x0000000000000000       0x40 libmbed.a(serial_api.o)
 .data.SCSCR_MATCH
                0x0000000000000000       0x20 libmbed.a(serial_api.o)
 .data.SCFSR_MATCH
                0x0000000000000000       0x20 libmbed.a(serial_api.o)
 .rodata        0x0000000000000000      0x134 libmbed.a(serial_api.o)
 .text.serial_init
                0x0000000000000000      0x4a4 libmbed.a(serial_api.o)
 .text.serial_free
                0x0000000000000000       0x40 libmbed.a(serial_api.o)
 .text.serial_baud
                0x0000000000000000      0x480 libmbed.a(serial_api.o)
 .text.serial_format
                0x0000000000000000      0x1f0 libmbed.a(serial_api.o)
 .text.uart_tx_irq
                0x0000000000000000       0xbc libmbed.a(serial_api.o)
 .text.uart_rx_irq
                0x0000000000000000       0xbc libmbed.a(serial_api.o)
 .text.uart0_tx_irq
                0x0000000000000000       0x18 libmbed.a(serial_api.o)
 .text.uart1_tx_irq
                0x0000000000000000       0x18 libmbed.a(serial_api.o)
 .text.uart2_tx_irq
                0x0000000000000000       0x18 libmbed.a(serial_api.o)
 .text.uart3_tx_irq
                0x0000000000000000       0x18 libmbed.a(serial_api.o)
 .text.uart4_tx_irq
                0x0000000000000000       0x18 libmbed.a(serial_api.o)
 .text.uart5_tx_irq
                0x0000000000000000       0x18 libmbed.a(serial_api.o)
 .text.uart6_tx_irq
                0x0000000000000000       0x18 libmbed.a(serial_api.o)
 .text.uart7_tx_irq
                0x0000000000000000       0x18 libmbed.a(serial_api.o)
 .text.uart0_rx_irq
                0x0000000000000000       0x18 libmbed.a(serial_api.o)
 .text.uart1_rx_irq
                0x0000000000000000       0x18 libmbed.a(serial_api.o)
 .text.uart2_rx_irq
                0x0000000000000000       0x18 libmbed.a(serial_api.o)
 .text.uart3_rx_irq
                0x0000000000000000       0x18 libmbed.a(serial_api.o)
 .text.uart4_rx_irq
                0x0000000000000000       0x18 libmbed.a(serial_api.o)
 .text.uart5_rx_irq
                0x0000000000000000       0x18 libmbed.a(serial_api.o)
 .text.uart6_rx_irq
                0x0000000000000000       0x18 libmbed.a(serial_api.o)
 .text.uart7_rx_irq
                0x0000000000000000       0x18 libmbed.a(serial_api.o)
 .text.serial_irq_handler
                0x0000000000000000       0x58 libmbed.a(serial_api.o)
 .text.serial_irq_set_internal
                0x0000000000000000       0xdc libmbed.a(serial_api.o)
 .text.serial_irq_set
                0x0000000000000000       0x7c libmbed.a(serial_api.o)
 .text.serial_flow_irq_set
                0x0000000000000000       0x64 libmbed.a(serial_api.o)
 .text.serial_getc
                0x0000000000000000      0x16c libmbed.a(serial_api.o)
 .text.serial_putc
                0x0000000000000000      0x140 libmbed.a(serial_api.o)
 .text.serial_readable
                0x0000000000000000       0x38 libmbed.a(serial_api.o)
 .text.serial_writable
                0x0000000000000000       0x38 libmbed.a(serial_api.o)
 .text.serial_clear
                0x0000000000000000       0xa8 libmbed.a(serial_api.o)
 .text.serial_pinout_tx
                0x0000000000000000       0x30 libmbed.a(serial_api.o)
 .text.serial_break_set
                0x0000000000000000       0x84 libmbed.a(serial_api.o)
 .text.serial_break_clear
                0x0000000000000000       0x84 libmbed.a(serial_api.o)
 .text.serial_set_flow_control
                0x0000000000000000       0xd8 libmbed.a(serial_api.o)
 .debug_info    0x0000000000000000     0x2d58 libmbed.a(serial_api.o)
 .debug_abbrev  0x0000000000000000      0x37a libmbed.a(serial_api.o)
 .debug_aranges
                0x0000000000000000      0x130 libmbed.a(serial_api.o)
 .debug_ranges  0x0000000000000000      0x120 libmbed.a(serial_api.o)
 .debug_line    0x0000000000000000      0x885 libmbed.a(serial_api.o)
 .debug_str     0x0000000000000000     0x2e90 libmbed.a(serial_api.o)
 .comment       0x0000000000000000       0x7d libmbed.a(serial_api.o)
 .debug_frame   0x0000000000000000      0x398 libmbed.a(serial_api.o)
 .ARM.attributes
                0x0000000000000000       0x3b libmbed.a(serial_api.o)
 .text          0x0000000000000000        0x0 libmbed.a(assert.o)
 .data          0x0000000000000000        0x0 libmbed.a(assert.o)
 .bss           0x0000000000000000        0x0 libmbed.a(assert.o)
 .rodata        0x0000000000000000       0x31 libmbed.a(assert.o)
 .text.mbed_assert_internal
                0x0000000000000000       0x38 libmbed.a(assert.o)
 .debug_info    0x0000000000000000       0x7f libmbed.a(assert.o)
 .debug_abbrev  0x0000000000000000       0x63 libmbed.a(assert.o)
 .debug_aranges
                0x0000000000000000       0x20 libmbed.a(assert.o)
 .debug_ranges  0x0000000000000000       0x10 libmbed.a(assert.o)
 .debug_line    0x0000000000000000       0x5c libmbed.a(assert.o)
 .debug_str     0x0000000000000000      0x1ea libmbed.a(assert.o)
 .comment       0x0000000000000000       0x7d libmbed.a(assert.o)
 .debug_frame   0x0000000000000000       0x2c libmbed.a(assert.o)
 .ARM.attributes
                0x0000000000000000       0x3b libmbed.a(assert.o)
 .text          0x0000000000000000        0x0 libmbed.a(board.o)
 .data          0x0000000000000000        0x0 libmbed.a(board.o)
 .bss           0x0000000000000000        0x0 libmbed.a(board.o)
 .text          0x0000000000000000        0x0 libmbed.a(error.o)
 .data          0x0000000000000000        0x0 libmbed.a(error.o)
 .bss           0x0000000000000000        0x0 libmbed.a(error.o)
 .text.error    0x0000000000000000       0x10 libmbed.a(error.o)
 .debug_info    0x0000000000000000      0x8ca libmbed.a(error.o)
 .debug_abbrev  0x0000000000000000      0x185 libmbed.a(error.o)
 .debug_aranges
                0x0000000000000000       0x20 libmbed.a(error.o)
 .debug_ranges  0x0000000000000000       0x10 libmbed.a(error.o)
 .debug_line    0x0000000000000000      0x192 libmbed.a(error.o)
 .debug_str     0x0000000000000000      0x67c libmbed.a(error.o)
 .comment       0x0000000000000000       0x7d libmbed.a(error.o)
 .debug_frame   0x0000000000000000       0x34 libmbed.a(error.o)
 .ARM.attributes
                0x0000000000000000       0x3b libmbed.a(error.o)
 .text          0x0000000000000000        0x0 libmbed.a(pinmap_common.o)
 .data          0x0000000000000000        0x0 libmbed.a(pinmap_common.o)
 .bss           0x0000000000000000        0x0 libmbed.a(pinmap_common.o)
 .rodata        0x0000000000000000       0x66 libmbed.a(pinmap_common.o)
 .text.pinmap_pinout
                0x0000000000000000       0x9c libmbed.a(pinmap_common.o)
 .text.pinmap_merge
                0x0000000000000000       0x6c libmbed.a(pinmap_common.o)
 .text.pinmap_find_peripheral
                0x0000000000000000       0x60 libmbed.a(pinmap_common.o)
 .text.pinmap_peripheral
                0x0000000000000000       0x6c libmbed.a(pinmap_common.o)
 .text.pinmap_find_function
                0x0000000000000000       0x60 libmbed.a(pinmap_common.o)
 .text.pinmap_function
                0x0000000000000000       0x6c libmbed.a(pinmap_common.o)
 .debug_info    0x0000000000000000      0x7aa libmbed.a(pinmap_common.o)
 .debug_abbrev  0x0000000000000000      0x10a libmbed.a(pinmap_common.o)
 .debug_aranges
                0x0000000000000000       0x48 libmbed.a(pinmap_common.o)
 .debug_ranges  0x0000000000000000       0x38 libmbed.a(pinmap_common.o)
 .debug_line    0x0000000000000000      0x230 libmbed.a(pinmap_common.o)
 .debug_str     0x0000000000000000      0x7b7 libmbed.a(pinmap_common.o)
 .comment       0x0000000000000000       0x7d libmbed.a(pinmap_common.o)
 .debug_frame   0x0000000000000000       0xb0 libmbed.a(pinmap_common.o)
 .ARM.attributes
                0x0000000000000000       0x3b libmbed.a(pinmap_common.o)
 .text          0x0000000000000000        0x0 libmbed.a(us_ticker_api.o)
 .data          0x0000000000000000        0x0 libmbed.a(us_ticker_api.o)
 .bss           0x0000000000000000        0x0 libmbed.a(us_ticker_api.o)
 .text          0x0000000000000000        0x0 libmbed.a(wait_api.o)
 .data          0x0000000000000000        0x0 libmbed.a(wait_api.o)
 .bss           0x0000000000000000        0x0 libmbed.a(wait_api.o)
 .text.wait     0x0000000000000000       0x34 libmbed.a(wait_api.o)
 .text          0x0000000000000000        0x0 libmbed.a(ticker_api.o)
 .data          0x0000000000000000        0x0 libmbed.a(ticker_api.o)
 .bss           0x0000000000000000        0x0 libmbed.a(ticker_api.o)
 .text.ticker_get_next_timestamp
                0x0000000000000000       0x68 libmbed.a(ticker_api.o)
 .text          0x0000000000000000        0x0 libmbed.a(FilePath.o)
 .data          0x0000000000000000        0x0 libmbed.a(FilePath.o)
 .bss           0x0000000000000000        0x0 libmbed.a(FilePath.o)
 .text._ZN4mbed8FilePathC2EPKc
                0x0000000000000000      0x100 libmbed.a(FilePath.o)
 .text._ZN4mbed8FilePath8fileNameEv
                0x0000000000000000       0x1c libmbed.a(FilePath.o)
 .text._ZN4mbed8FilePath12isFileSystemEv
                0x0000000000000000       0x54 libmbed.a(FilePath.o)
 .text._ZN4mbed8FilePath10fileSystemEv
                0x0000000000000000       0x3c libmbed.a(FilePath.o)
 .text._ZN4mbed8FilePath6isFileEv
                0x0000000000000000       0x54 libmbed.a(FilePath.o)
 .text._ZN4mbed8FilePath4fileEv
                0x0000000000000000       0x58 libmbed.a(FilePath.o)
 .text._ZN4mbed8FilePath6existsEv
                0x0000000000000000       0x2c libmbed.a(FilePath.o)
 .debug_info    0x0000000000000000     0x1877 libmbed.a(FilePath.o)
 .debug_abbrev  0x0000000000000000      0x34d libmbed.a(FilePath.o)
 .debug_aranges
                0x0000000000000000       0x50 libmbed.a(FilePath.o)
 .debug_ranges  0x0000000000000000       0x58 libmbed.a(FilePath.o)
 .debug_line    0x0000000000000000      0x3ab libmbed.a(FilePath.o)
 .debug_str     0x0000000000000000      0xb1a libmbed.a(FilePath.o)
 .comment       0x0000000000000000       0x7d libmbed.a(FilePath.o)
 .debug_frame   0x0000000000000000       0xcc libmbed.a(FilePath.o)
 .ARM.attributes
                0x0000000000000000       0x3b libmbed.a(FilePath.o)
 .group         0x0000000000000000        0x8 libmbed.a(FileSystemLike.o)
 .group         0x0000000000000000        0x8 libmbed.a(FileSystemLike.o)
 .group         0x0000000000000000        0xc libmbed.a(FileSystemLike.o)
 .group         0x0000000000000000        0x8 libmbed.a(FileSystemLike.o)
 .group         0x0000000000000000        0x8 libmbed.a(FileSystemLike.o)
 .group         0x0000000000000000        0x8 libmbed.a(FileSystemLike.o)
 .group         0x0000000000000000        0x8 libmbed.a(FileSystemLike.o)
 .group         0x0000000000000000        0x8 libmbed.a(FileSystemLike.o)
 .group         0x0000000000000000        0x8 libmbed.a(FileSystemLike.o)
 .group         0x0000000000000000        0x8 libmbed.a(FileSystemLike.o)
 .group         0x0000000000000000        0x8 libmbed.a(FileSystemLike.o)
 .group         0x0000000000000000        0x8 libmbed.a(FileSystemLike.o)
 .group         0x0000000000000000        0x8 libmbed.a(FileSystemLike.o)
 .group         0x0000000000000000        0x8 libmbed.a(FileSystemLike.o)
 .group         0x0000000000000000        0x8 libmbed.a(FileSystemLike.o)
 .group         0x0000000000000000        0xc libmbed.a(FileSystemLike.o)
 .group         0x0000000000000000        0x8 libmbed.a(FileSystemLike.o)
 .text          0x0000000000000000        0x0 libmbed.a(FileSystemLike.o)
 .data          0x0000000000000000        0x0 libmbed.a(FileSystemLike.o)
 .bss           0x0000000000000000        0x0 libmbed.a(FileSystemLike.o)
 .text._ZN4mbed9DirHandle7telldirEv
                0x0000000000000000       0x18 libmbed.a(FileSystemLike.o)
 .text._ZN4mbed9DirHandle7seekdirEl
                0x0000000000000000       0x18 libmbed.a(FileSystemLike.o)
 .text._ZN4mbed9DirHandleD2Ev
                0x0000000000000000       0x28 libmbed.a(FileSystemLike.o)
 .text._ZN4mbed9DirHandleD0Ev
                0x0000000000000000       0x2c libmbed.a(FileSystemLike.o)
 .text._ZN4mbed14FileSystemLike6removeEPKc
                0x0000000000000000       0x1c libmbed.a(FileSystemLike.o)
 .text._ZN4mbed14FileSystemLike6renameEPKcS2_
                0x0000000000000000       0x20 libmbed.a(FileSystemLike.o)
 .text._ZN4mbed14FileSystemLike7opendirEPKc
                0x0000000000000000       0x1c libmbed.a(FileSystemLike.o)
 .text._ZN4mbed14FileSystemLike5mkdirEPKcm
                0x0000000000000000       0x20 libmbed.a(FileSystemLike.o)
 .text._ZN4mbed9DirHandleC2Ev
                0x0000000000000000       0x28 libmbed.a(FileSystemLike.o)
 .text._ZN4mbed13BaseDirHandleC2Ev
                0x0000000000000000       0x5c libmbed.a(FileSystemLike.o)
 .text._ZN4mbed13BaseDirHandle8closedirEv
                0x0000000000000000       0x40 libmbed.a(FileSystemLike.o)
 .text._ZN4mbed13BaseDirHandle7readdirEv
                0x0000000000000000       0x80 libmbed.a(FileSystemLike.o)
 .text._ZN4mbed13BaseDirHandle7telldirEv
                0x0000000000000000       0x1c libmbed.a(FileSystemLike.o)
 .text._ZN4mbed13BaseDirHandle7seekdirEl
                0x0000000000000000       0x24 libmbed.a(FileSystemLike.o)
 .text._ZN4mbed13BaseDirHandle9rewinddirEv
                0x0000000000000000       0x20 libmbed.a(FileSystemLike.o)
 .text._ZN4mbed14FileSystemLikeC2EPKc
                0x0000000000000000       0x44 libmbed.a(FileSystemLike.o)
 .text._ZN4mbed14FileSystemLikeD2Ev
                0x0000000000000000       0x38 libmbed.a(FileSystemLike.o)
 .text._ZN4mbed14FileSystemLikeD0Ev
                0x0000000000000000       0x2c libmbed.a(FileSystemLike.o)
 .text._ZN4mbed14FileSystemLike7opendirEv
                0x0000000000000000       0x28 libmbed.a(FileSystemLike.o)
 .rodata._ZTVN4mbed13BaseDirHandleE
                0x0000000000000000       0x24 libmbed.a(FileSystemLike.o)
 .text._ZN4mbed13BaseDirHandleD2Ev
                0x0000000000000000       0x38 libmbed.a(FileSystemLike.o)
 .text._ZN4mbed13BaseDirHandleD0Ev
                0x0000000000000000       0x2c libmbed.a(FileSystemLike.o)
 .rodata._ZTVN4mbed14FileSystemLikeE
                0x0000000000000000       0x24 libmbed.a(FileSystemLike.o)
 .rodata._ZTVN4mbed9DirHandleE
                0x0000000000000000       0x24 libmbed.a(FileSystemLike.o)
 .debug_info    0x0000000000000000     0x1ee3 libmbed.a(FileSystemLike.o)
 .debug_abbrev  0x0000000000000000      0x48a libmbed.a(FileSystemLike.o)
 .debug_aranges
                0x0000000000000000       0xc0 libmbed.a(FileSystemLike.o)
 .debug_ranges  0x0000000000000000       0xb0 libmbed.a(FileSystemLike.o)
 .debug_line    0x0000000000000000      0x531 libmbed.a(FileSystemLike.o)
 .debug_str     0x0000000000000000      0xf0b libmbed.a(FileSystemLike.o)
 .comment       0x0000000000000000       0x7d libmbed.a(FileSystemLike.o)
 .debug_frame   0x0000000000000000      0x230 libmbed.a(FileSystemLike.o)
 .ARM.attributes
                0x0000000000000000       0x3b libmbed.a(FileSystemLike.o)
 .text          0x0000000000000000        0x0 libmbed.a(us_ticker.o)
 .data          0x0000000000000000        0x0 libmbed.a(us_ticker.o)
 .bss           0x0000000000000000        0x0 libmbed.a(us_ticker.o)
 .text          0x0000000000000000        0x0 libmbed.a(FileBase.o)
 .data          0x0000000000000000        0x0 libmbed.a(FileBase.o)
 .bss           0x0000000000000000        0x0 libmbed.a(FileBase.o)
 .bss._ZN4mbed8FileBase5_headE
                0x0000000000000000        0x4 libmbed.a(FileBase.o)
 .text._ZN4mbed8FileBaseC2EPKcNS_8PathTypeE
                0x0000000000000000       0x98 libmbed.a(FileBase.o)
 .text._ZN4mbed8FileBaseD2Ev
                0x0000000000000000       0xac libmbed.a(FileBase.o)
 .text._ZN4mbed8FileBaseD0Ev
                0x0000000000000000       0x2c libmbed.a(FileBase.o)
 .text._ZN4mbed8FileBase6lookupEPKcj
                0x0000000000000000       0xbc libmbed.a(FileBase.o)
 .text._ZN4mbed8FileBase3getEi
                0x0000000000000000       0x70 libmbed.a(FileBase.o)
 .text._ZN4mbed8FileBase7getNameEv
                0x0000000000000000       0x1c libmbed.a(FileBase.o)
 .text._ZN4mbed8FileBase11getPathTypeEv
                0x0000000000000000       0x1c libmbed.a(FileBase.o)
 .rodata._ZTVN4mbed8FileBaseE
                0x0000000000000000       0x10 libmbed.a(FileBase.o)
 .debug_info    0x0000000000000000     0x1ea6 libmbed.a(FileBase.o)
 .debug_abbrev  0x0000000000000000      0x464 libmbed.a(FileBase.o)
 .debug_aranges
                0x0000000000000000       0x50 libmbed.a(FileBase.o)
 .debug_ranges  0x0000000000000000       0x40 libmbed.a(FileBase.o)
 .debug_line    0x0000000000000000      0x402 libmbed.a(FileBase.o)
 .debug_str     0x0000000000000000     0x1080 libmbed.a(FileBase.o)
 .comment       0x0000000000000000       0x7d libmbed.a(FileBase.o)
 .debug_frame   0x0000000000000000       0xc0 libmbed.a(FileBase.o)
 .ARM.attributes
                0x0000000000000000       0x3b libmbed.a(FileBase.o)
 .data          0x0000000000000000        0x0 ./libkernel.a(target_support.o)
 .bss           0x0000000000000000        0x0 ./libkernel.a(target_support.o)
 .data          0x0000000000000000        0x0 ./libkernel.a(core_support.o)
 .bss           0x0000000000000000        0x0 ./libkernel.a(core_support.o)
 .vector        0x0000000000000000       0x3c ./libkernel.a(core_support.o)
 .bss           0x0000000000000000        0x0 ./libkernel.a(target_kernel_impl.o)
 .data          0x0000000000000000        0x0 ./libkernel.a(chip_kernel_impl.o)
 .bss           0x0000000000000000        0x0 ./libkernel.a(chip_kernel_impl.o)
 .data          0x0000000000000000        0x0 ./libkernel.a(gic_kernel_impl.o)
 .bss           0x0000000000000000        0x0 ./libkernel.a(gic_kernel_impl.o)
 .data          0x0000000000000000        0x0 ./libkernel.a(chip_timer.o)
 .bss           0x0000000000000000        0x0 ./libkernel.a(chip_timer.o)
 .data          0x0000000000000000        0x0 ./libkernel.a(core_kernel_impl.o)
 .data          0x0000000000000000        0x0 ./libkernel.a(arm.o)
 .bss           0x0000000000000000        0x0 ./libkernel.a(arm.o)
 .data          0x0000000000000000        0x0 ./libkernel.a(startup.o)
 .data          0x0000000000000000        0x0 ./libkernel.a(task.o)
 .bss           0x0000000000000000        0x0 ./libkernel.a(task.o)
 .text          0x0000000000000000        0x0 ./libkernel.a(taskhook.o)
 .data          0x0000000000000000        0x0 ./libkernel.a(taskhook.o)
 .data          0x0000000000000000        0x0 ./libkernel.a(time_event.o)
 .bss           0x0000000000000000        0x0 ./libkernel.a(time_event.o)
 .data          0x0000000000000000        0x0 ./libkernel.a(task_sync.o)
 .bss           0x0000000000000000        0x0 ./libkernel.a(task_sync.o)
 .data          0x0000000000000000        0x0 ./libkernel.a(task_term.o)
 .bss           0x0000000000000000        0x0 ./libkernel.a(task_term.o)
 .data          0x0000000000000000        0x0 ./libkernel.a(semaphore.o)
 .bss           0x0000000000000000        0x0 ./libkernel.a(semaphore.o)
 .data          0x0000000000000000        0x0 ./libkernel.a(sys_manage.o)
 .bss           0x0000000000000000        0x0 ./libkernel.a(sys_manage.o)
 .data          0x0000000000000000        0x0 ./libkernel.a(interrupt.o)
 .bss           0x0000000000000000        0x0 ./libkernel.a(interrupt.o)
 .data          0x0000000000000000        0x0 ./libkernel.a(gic_support.o)
 .bss           0x0000000000000000        0x0 ./libkernel.a(gic_support.o)
 .data          0x0000000000000000        0x0 ./libkernel.a(wait.o)
 .bss           0x0000000000000000        0x0 ./libkernel.a(wait.o)
 .data          0x0000000000000000        0x0 /opt/Atollic_TrueSTUDIO_for_ARM_x86_64_8.0.0/ARMTools/bin/../lib/gcc/arm-atollic-eabi/6.3.1/armv7-ar/thumb/fpu/libgcc.a(_udivsi3.o)
 .bss           0x0000000000000000        0x0 /opt/Atollic_TrueSTUDIO_for_ARM_x86_64_8.0.0/ARMTools/bin/../lib/gcc/arm-atollic-eabi/6.3.1/armv7-ar/thumb/fpu/libgcc.a(_udivsi3.o)
 .data          0x0000000000000000        0x0 /opt/Atollic_TrueSTUDIO_for_ARM_x86_64_8.0.0/ARMTools/bin/../lib/gcc/arm-atollic-eabi/6.3.1/armv7-ar/thumb/fpu/libgcc.a(_divsi3.o)
 .bss           0x0000000000000000        0x0 /opt/Atollic_TrueSTUDIO_for_ARM_x86_64_8.0.0/ARMTools/bin/../lib/gcc/arm-atollic-eabi/6.3.1/armv7-ar/thumb/fpu/libgcc.a(_divsi3.o)
 .data          0x0000000000000000        0x0 /opt/Atollic_TrueSTUDIO_for_ARM_x86_64_8.0.0/ARMTools/bin/../lib/gcc/arm-atollic-eabi/6.3.1/armv7-ar/thumb/fpu/libgcc.a(_dvmd_tls.o)
 .bss           0x0000000000000000        0x0 /opt/Atollic_TrueSTUDIO_for_ARM_x86_64_8.0.0/ARMTools/bin/../lib/gcc/arm-atollic-eabi/6.3.1/armv7-ar/thumb/fpu/libgcc.a(_dvmd_tls.o)
 .data          0x0000000000000000        0x0 /opt/Atollic_TrueSTUDIO_for_ARM_x86_64_8.0.0/ARMTools/bin/../lib/gcc/arm-atollic-eabi/6.3.1/armv7-ar/thumb/fpu/libgcc.a(_arm_addsubdf3.o)
 .bss           0x0000000000000000        0x0 /opt/Atollic_TrueSTUDIO_for_ARM_x86_64_8.0.0/ARMTools/bin/../lib/gcc/arm-atollic-eabi/6.3.1/armv7-ar/thumb/fpu/libgcc.a(_arm_addsubdf3.o)
 .data          0x0000000000000000        0x0 /opt/Atollic_TrueSTUDIO_for_ARM_x86_64_8.0.0/ARMTools/bin/../lib/gcc/arm-atollic-eabi/6.3.1/armv7-ar/thumb/fpu/libgcc.a(_fixunsdfdi.o)
 .bss           0x0000000000000000        0x0 /opt/Atollic_TrueSTUDIO_for_ARM_x86_64_8.0.0/ARMTools/bin/../lib/gcc/arm-atollic-eabi/6.3.1/armv7-ar/thumb/fpu/libgcc.a(_fixunsdfdi.o)
 .text          0x0000000000000000        0x0 /opt/Atollic_TrueSTUDIO_for_ARM_x86_64_8.0.0/ARMTools/bin/../lib/gcc/arm-atollic-eabi/6.3.1/../../../../arm-atollic-eabi/lib/armv7-ar/thumb/fpu/libstdc++_nano.a(del_op.o)
 .data          0x0000000000000000        0x0 /opt/Atollic_TrueSTUDIO_for_ARM_x86_64_8.0.0/ARMTools/bin/../lib/gcc/arm-atollic-eabi/6.3.1/../../../../arm-atollic-eabi/lib/armv7-ar/thumb/fpu/libstdc++_nano.a(del_op.o)
 .bss           0x0000000000000000        0x0 /opt/Atollic_TrueSTUDIO_for_ARM_x86_64_8.0.0/ARMTools/bin/../lib/gcc/arm-atollic-eabi/6.3.1/../../../../arm-atollic-eabi/lib/armv7-ar/thumb/fpu/libstdc++_nano.a(del_op.o)
 .text          0x0000000000000000        0x0 /opt/Atollic_TrueSTUDIO_for_ARM_x86_64_8.0.0/ARMTools/bin/../lib/gcc/arm-atollic-eabi/6.3.1/../../../../arm-atollic-eabi/lib/armv7-ar/thumb/fpu/libstdc++_nano.a(atexit_arm.o)
 .data          0x0000000000000000        0x0 /opt/Atollic_TrueSTUDIO_for_ARM_x86_64_8.0.0/ARMTools/bin/../lib/gcc/arm-atollic-eabi/6.3.1/../../../../arm-atollic-eabi/lib/armv7-ar/thumb/fpu/libstdc++_nano.a(atexit_arm.o)
 .bss           0x0000000000000000        0x0 /opt/Atollic_TrueSTUDIO_for_ARM_x86_64_8.0.0/ARMTools/bin/../lib/gcc/arm-atollic-eabi/6.3.1/../../../../arm-atollic-eabi/lib/armv7-ar/thumb/fpu/libstdc++_nano.a(atexit_arm.o)
 .text          0x0000000000000000        0x0 /opt/Atollic_TrueSTUDIO_for_ARM_x86_64_8.0.0/ARMTools/bin/../lib/gcc/arm-atollic-eabi/6.3.1/../../../../arm-atollic-eabi/lib/armv7-ar/thumb/fpu/libstdc++_nano.a(new_op.o)
 .data          0x0000000000000000        0x0 /opt/Atollic_TrueSTUDIO_for_ARM_x86_64_8.0.0/ARMTools/bin/../lib/gcc/arm-atollic-eabi/6.3.1/../../../../arm-atollic-eabi/lib/armv7-ar/thumb/fpu/libstdc++_nano.a(new_op.o)
 .bss           0x0000000000000000        0x0 /opt/Atollic_TrueSTUDIO_for_ARM_x86_64_8.0.0/ARMTools/bin/../lib/gcc/arm-atollic-eabi/6.3.1/../../../../arm-atollic-eabi/lib/armv7-ar/thumb/fpu/libstdc++_nano.a(new_op.o)
 .text._Znwj    0x0000000000000000       0x22 /opt/Atollic_TrueSTUDIO_for_ARM_x86_64_8.0.0/ARMTools/bin/../lib/gcc/arm-atollic-eabi/6.3.1/../../../../arm-atollic-eabi/lib/armv7-ar/thumb/fpu/libstdc++_nano.a(new_op.o)
 .debug_frame   0x0000000000000000       0x28 /opt/Atollic_TrueSTUDIO_for_ARM_x86_64_8.0.0/ARMTools/bin/../lib/gcc/arm-atollic-eabi/6.3.1/../../../../arm-atollic-eabi/lib/armv7-ar/thumb/fpu/libstdc++_nano.a(new_op.o)
 .ARM.attributes
                0x0000000000000000       0x2d /opt/Atollic_TrueSTUDIO_for_ARM_x86_64_8.0.0/ARMTools/bin/../lib/gcc/arm-atollic-eabi/6.3.1/../../../../arm-atollic-eabi/lib/armv7-ar/thumb/fpu/libstdc++_nano.a(new_op.o)
 .text          0x0000000000000000        0x0 /opt/Atollic_TrueSTUDIO_for_ARM_x86_64_8.0.0/ARMTools/bin/../lib/gcc/arm-atollic-eabi/6.3.1/../../../../arm-atollic-eabi/lib/armv7-ar/thumb/fpu/libstdc++_nano.a(new_handler.o)
 .data          0x0000000000000000        0x0 /opt/Atollic_TrueSTUDIO_for_ARM_x86_64_8.0.0/ARMTools/bin/../lib/gcc/arm-atollic-eabi/6.3.1/../../../../arm-atollic-eabi/lib/armv7-ar/thumb/fpu/libstdc++_nano.a(new_handler.o)
 .bss           0x0000000000000000        0x0 /opt/Atollic_TrueSTUDIO_for_ARM_x86_64_8.0.0/ARMTools/bin/../lib/gcc/arm-atollic-eabi/6.3.1/../../../../arm-atollic-eabi/lib/armv7-ar/thumb/fpu/libstdc++_nano.a(new_handler.o)
 .text._ZSt15set_new_handlerPFvvE
                0x0000000000000000       0x20 /opt/Atollic_TrueSTUDIO_for_ARM_x86_64_8.0.0/ARMTools/bin/../lib/gcc/arm-atollic-eabi/6.3.1/../../../../arm-atollic-eabi/lib/armv7-ar/thumb/fpu/libstdc++_nano.a(new_handler.o)
 .text._ZSt15get_new_handlerv
                0x0000000000000000       0x10 /opt/Atollic_TrueSTUDIO_for_ARM_x86_64_8.0.0/ARMTools/bin/../lib/gcc/arm-atollic-eabi/6.3.1/../../../../arm-atollic-eabi/lib/armv7-ar/thumb/fpu/libstdc++_nano.a(new_handler.o)
 .bss._ZN12_GLOBAL__N_113__new_handlerE
                0x0000000000000000        0x4 /opt/Atollic_TrueSTUDIO_for_ARM_x86_64_8.0.0/ARMTools/bin/../lib/gcc/arm-atollic-eabi/6.3.1/../../../../arm-atollic-eabi/lib/armv7-ar/thumb/fpu/libstdc++_nano.a(new_handler.o)
 .rodata._ZSt7nothrow
                0x0000000000000000        0x1 /opt/Atollic_TrueSTUDIO_for_ARM_x86_64_8.0.0/ARMTools/bin/../lib/gcc/arm-atollic-eabi/6.3.1/../../../../arm-atollic-eabi/lib/armv7-ar/thumb/fpu/libstdc++_nano.a(new_handler.o)
 .debug_frame   0x0000000000000000       0x30 /opt/Atollic_TrueSTUDIO_for_ARM_x86_64_8.0.0/ARMTools/bin/../lib/gcc/arm-atollic-eabi/6.3.1/../../../../arm-atollic-eabi/lib/armv7-ar/thumb/fpu/libstdc++_nano.a(new_handler.o)
 .ARM.attributes
                0x0000000000000000       0x2d /opt/Atollic_TrueSTUDIO_for_ARM_x86_64_8.0.0/ARMTools/bin/../lib/gcc/arm-atollic-eabi/6.3.1/../../../../arm-atollic-eabi/lib/armv7-ar/thumb/fpu/libstdc++_nano.a(new_handler.o)
 .text          0x0000000000000000        0x0 /opt/Atollic_TrueSTUDIO_for_ARM_x86_64_8.0.0/ARMTools/bin/../lib/gcc/arm-atollic-eabi/6.3.1/../../../../arm-atollic-eabi/lib/armv7-ar/thumb/fpu/libc_nano.a(lib_a-abort.o)
 .data          0x0000000000000000        0x0 /opt/Atollic_TrueSTUDIO_for_ARM_x86_64_8.0.0/ARMTools/bin/../lib/gcc/arm-atollic-eabi/6.3.1/../../../../arm-atollic-eabi/lib/armv7-ar/thumb/fpu/libc_nano.a(lib_a-abort.o)
 .bss           0x0000000000000000        0x0 /opt/Atollic_TrueSTUDIO_for_ARM_x86_64_8.0.0/ARMTools/bin/../lib/gcc/arm-atollic-eabi/6.3.1/../../../../arm-atollic-eabi/lib/armv7-ar/thumb/fpu/libc_nano.a(lib_a-abort.o)
 .text.abort    0x0000000000000000        0xe /opt/Atollic_TrueSTUDIO_for_ARM_x86_64_8.0.0/ARMTools/bin/../lib/gcc/arm-atollic-eabi/6.3.1/../../../../arm-atollic-eabi/lib/armv7-ar/thumb/fpu/libc_nano.a(lib_a-abort.o)
 .debug_frame   0x0000000000000000       0x28 /opt/Atollic_TrueSTUDIO_for_ARM_x86_64_8.0.0/ARMTools/bin/../lib/gcc/arm-atollic-eabi/6.3.1/../../../../arm-atollic-eabi/lib/armv7-ar/thumb/fpu/libc_nano.a(lib_a-abort.o)
 .ARM.attributes
                0x0000000000000000       0x2d /opt/Atollic_TrueSTUDIO_for_ARM_x86_64_8.0.0/ARMTools/bin/../lib/gcc/arm-atollic-eabi/6.3.1/../../../../arm-atollic-eabi/lib/armv7-ar/thumb/fpu/libc_nano.a(lib_a-abort.o)
 .text          0x0000000000000000        0x0 /opt/Atollic_TrueSTUDIO_for_ARM_x86_64_8.0.0/ARMTools/bin/../lib/gcc/arm-atollic-eabi/6.3.1/../../../../arm-atollic-eabi/lib/armv7-ar/thumb/fpu/libc_nano.a(lib_a-cxa_atexit.o)
 .data          0x0000000000000000        0x0 /opt/Atollic_TrueSTUDIO_for_ARM_x86_64_8.0.0/ARMTools/bin/../lib/gcc/arm-atollic-eabi/6.3.1/../../../../arm-atollic-eabi/lib/armv7-ar/thumb/fpu/libc_nano.a(lib_a-cxa_atexit.o)
 .bss           0x0000000000000000        0x0 /opt/Atollic_TrueSTUDIO_for_ARM_x86_64_8.0.0/ARMTools/bin/../lib/gcc/arm-atollic-eabi/6.3.1/../../../../arm-atollic-eabi/lib/armv7-ar/thumb/fpu/libc_nano.a(lib_a-cxa_atexit.o)
 .rodata.__cxa_atexit_dummy
                0x0000000000000000        0x4 /opt/Atollic_TrueSTUDIO_for_ARM_x86_64_8.0.0/ARMTools/bin/../lib/gcc/arm-atollic-eabi/6.3.1/../../../../arm-atollic-eabi/lib/armv7-ar/thumb/fpu/libc_nano.a(lib_a-cxa_atexit.o)
 .text          0x0000000000000000        0x0 /opt/Atollic_TrueSTUDIO_for_ARM_x86_64_8.0.0/ARMTools/bin/../lib/gcc/arm-atollic-eabi/6.3.1/../../../../arm-atollic-eabi/lib/armv7-ar/thumb/fpu/libc_nano.a(lib_a-errno.o)
 .data          0x0000000000000000        0x0 /opt/Atollic_TrueSTUDIO_for_ARM_x86_64_8.0.0/ARMTools/bin/../lib/gcc/arm-atollic-eabi/6.3.1/../../../../arm-atollic-eabi/lib/armv7-ar/thumb/fpu/libc_nano.a(lib_a-errno.o)
 .bss           0x0000000000000000        0x0 /opt/Atollic_TrueSTUDIO_for_ARM_x86_64_8.0.0/ARMTools/bin/../lib/gcc/arm-atollic-eabi/6.3.1/../../../../arm-atollic-eabi/lib/armv7-ar/thumb/fpu/libc_nano.a(lib_a-errno.o)
 .text.__errno  0x0000000000000000        0xc /opt/Atollic_TrueSTUDIO_for_ARM_x86_64_8.0.0/ARMTools/bin/../lib/gcc/arm-atollic-eabi/6.3.1/../../../../arm-atollic-eabi/lib/armv7-ar/thumb/fpu/libc_nano.a(lib_a-errno.o)
 .debug_frame   0x0000000000000000       0x20 /opt/Atollic_TrueSTUDIO_for_ARM_x86_64_8.0.0/ARMTools/bin/../lib/gcc/arm-atollic-eabi/6.3.1/../../../../arm-atollic-eabi/lib/armv7-ar/thumb/fpu/libc_nano.a(lib_a-errno.o)
 .ARM.attributes
                0x0000000000000000       0x2d /opt/Atollic_TrueSTUDIO_for_ARM_x86_64_8.0.0/ARMTools/bin/../lib/gcc/arm-atollic-eabi/6.3.1/../../../../arm-atollic-eabi/lib/armv7-ar/thumb/fpu/libc_nano.a(lib_a-errno.o)
 .text          0x0000000000000000        0x0 /opt/Atollic_TrueSTUDIO_for_ARM_x86_64_8.0.0/ARMTools/bin/../lib/gcc/arm-atollic-eabi/6.3.1/../../../../arm-atollic-eabi/lib/armv7-ar/thumb/fpu/libc_nano.a(lib_a-exit.o)
 .data          0x0000000000000000        0x0 /opt/Atollic_TrueSTUDIO_for_ARM_x86_64_8.0.0/ARMTools/bin/../lib/gcc/arm-atollic-eabi/6.3.1/../../../../arm-atollic-eabi/lib/armv7-ar/thumb/fpu/libc_nano.a(lib_a-exit.o)
 .bss           0x0000000000000000        0x0 /opt/Atollic_TrueSTUDIO_for_ARM_x86_64_8.0.0/ARMTools/bin/../lib/gcc/arm-atollic-eabi/6.3.1/../../../../arm-atollic-eabi/lib/armv7-ar/thumb/fpu/libc_nano.a(lib_a-exit.o)
 .text          0x0000000000000000        0x0 /opt/Atollic_TrueSTUDIO_for_ARM_x86_64_8.0.0/ARMTools/bin/../lib/gcc/arm-atollic-eabi/6.3.1/../../../../arm-atollic-eabi/lib/armv7-ar/thumb/fpu/libc_nano.a(lib_a-fgetc.o)
 .data          0x0000000000000000        0x0 /opt/Atollic_TrueSTUDIO_for_ARM_x86_64_8.0.0/ARMTools/bin/../lib/gcc/arm-atollic-eabi/6.3.1/../../../../arm-atollic-eabi/lib/armv7-ar/thumb/fpu/libc_nano.a(lib_a-fgetc.o)
 .bss           0x0000000000000000        0x0 /opt/Atollic_TrueSTUDIO_for_ARM_x86_64_8.0.0/ARMTools/bin/../lib/gcc/arm-atollic-eabi/6.3.1/../../../../arm-atollic-eabi/lib/armv7-ar/thumb/fpu/libc_nano.a(lib_a-fgetc.o)
 .text._fgetc_r
                0x0000000000000000       0x58 /opt/Atollic_TrueSTUDIO_for_ARM_x86_64_8.0.0/ARMTools/bin/../lib/gcc/arm-atollic-eabi/6.3.1/../../../../arm-atollic-eabi/lib/armv7-ar/thumb/fpu/libc_nano.a(lib_a-fgetc.o)
 .text.fgetc    0x0000000000000000       0x10 /opt/Atollic_TrueSTUDIO_for_ARM_x86_64_8.0.0/ARMTools/bin/../lib/gcc/arm-atollic-eabi/6.3.1/../../../../arm-atollic-eabi/lib/armv7-ar/thumb/fpu/libc_nano.a(lib_a-fgetc.o)
 .debug_frame   0x0000000000000000       0x48 /opt/Atollic_TrueSTUDIO_for_ARM_x86_64_8.0.0/ARMTools/bin/../lib/gcc/arm-atollic-eabi/6.3.1/../../../../arm-atollic-eabi/lib/armv7-ar/thumb/fpu/libc_nano.a(lib_a-fgetc.o)
 .ARM.attributes
                0x0000000000000000       0x2d /opt/Atollic_TrueSTUDIO_for_ARM_x86_64_8.0.0/ARMTools/bin/../lib/gcc/arm-atollic-eabi/6.3.1/../../../../arm-atollic-eabi/lib/armv7-ar/thumb/fpu/libc_nano.a(lib_a-fgetc.o)
 .text          0x0000000000000000        0x0 /opt/Atollic_TrueSTUDIO_for_ARM_x86_64_8.0.0/ARMTools/bin/../lib/gcc/arm-atollic-eabi/6.3.1/../../../../arm-atollic-eabi/lib/armv7-ar/thumb/fpu/libc_nano.a(lib_a-fgets.o)
 .data          0x0000000000000000        0x0 /opt/Atollic_TrueSTUDIO_for_ARM_x86_64_8.0.0/ARMTools/bin/../lib/gcc/arm-atollic-eabi/6.3.1/../../../../arm-atollic-eabi/lib/armv7-ar/thumb/fpu/libc_nano.a(lib_a-fgets.o)
 .bss           0x0000000000000000        0x0 /opt/Atollic_TrueSTUDIO_for_ARM_x86_64_8.0.0/ARMTools/bin/../lib/gcc/arm-atollic-eabi/6.3.1/../../../../arm-atollic-eabi/lib/armv7-ar/thumb/fpu/libc_nano.a(lib_a-fgets.o)
 .text._fgets_r
                0x0000000000000000       0xc8 /opt/Atollic_TrueSTUDIO_for_ARM_x86_64_8.0.0/ARMTools/bin/../lib/gcc/arm-atollic-eabi/6.3.1/../../../../arm-atollic-eabi/lib/armv7-ar/thumb/fpu/libc_nano.a(lib_a-fgets.o)
 .text.fgets    0x0000000000000000       0x14 /opt/Atollic_TrueSTUDIO_for_ARM_x86_64_8.0.0/ARMTools/bin/../lib/gcc/arm-atollic-eabi/6.3.1/../../../../arm-atollic-eabi/lib/armv7-ar/thumb/fpu/libc_nano.a(lib_a-fgets.o)
 .debug_frame   0x0000000000000000       0x44 /opt/Atollic_TrueSTUDIO_for_ARM_x86_64_8.0.0/ARMTools/bin/../lib/gcc/arm-atollic-eabi/6.3.1/../../../../arm-atollic-eabi/lib/armv7-ar/thumb/fpu/libc_nano.a(lib_a-fgets.o)
 .ARM.attributes
                0x0000000000000000       0x2d /opt/Atollic_TrueSTUDIO_for_ARM_x86_64_8.0.0/ARMTools/bin/../lib/gcc/arm-atollic-eabi/6.3.1/../../../../arm-atollic-eabi/lib/armv7-ar/thumb/fpu/libc_nano.a(lib_a-fgets.o)
 .text          0x0000000000000000        0x0 /opt/Atollic_TrueSTUDIO_for_ARM_x86_64_8.0.0/ARMTools/bin/../lib/gcc/arm-atollic-eabi/6.3.1/../../../../arm-atollic-eabi/lib/armv7-ar/thumb/fpu/libc_nano.a(lib_a-findfp.o)
 .data          0x0000000000000000        0x0 /opt/Atollic_TrueSTUDIO_for_ARM_x86_64_8.0.0/ARMTools/bin/../lib/gcc/arm-atollic-eabi/6.3.1/../../../../arm-atollic-eabi/lib/armv7-ar/thumb/fpu/libc_nano.a(lib_a-findfp.o)
 .bss           0x0000000000000000        0x0 /opt/Atollic_TrueSTUDIO_for_ARM_x86_64_8.0.0/ARMTools/bin/../lib/gcc/arm-atollic-eabi/6.3.1/../../../../arm-atollic-eabi/lib/armv7-ar/thumb/fpu/libc_nano.a(lib_a-findfp.o)
 .text.__fp_unlock
                0x0000000000000000        0x4 /opt/Atollic_TrueSTUDIO_for_ARM_x86_64_8.0.0/ARMTools/bin/../lib/gcc/arm-atollic-eabi/6.3.1/../../../../arm-atollic-eabi/lib/armv7-ar/thumb/fpu/libc_nano.a(lib_a-findfp.o)
 .text._cleanup_r
                0x0000000000000000        0xc /opt/Atollic_TrueSTUDIO_for_ARM_x86_64_8.0.0/ARMTools/bin/../lib/gcc/arm-atollic-eabi/6.3.1/../../../../arm-atollic-eabi/lib/armv7-ar/thumb/fpu/libc_nano.a(lib_a-findfp.o)
 .text.std.isra.0
                0x0000000000000000       0x54 /opt/Atollic_TrueSTUDIO_for_ARM_x86_64_8.0.0/ARMTools/bin/../lib/gcc/arm-atollic-eabi/6.3.1/../../../../arm-atollic-eabi/lib/armv7-ar/thumb/fpu/libc_nano.a(lib_a-findfp.o)
 .text.__fp_lock
                0x0000000000000000        0x4 /opt/Atollic_TrueSTUDIO_for_ARM_x86_64_8.0.0/ARMTools/bin/../lib/gcc/arm-atollic-eabi/6.3.1/../../../../arm-atollic-eabi/lib/armv7-ar/thumb/fpu/libc_nano.a(lib_a-findfp.o)
 .text.__sfmoreglue
                0x0000000000000000       0x2c /opt/Atollic_TrueSTUDIO_for_ARM_x86_64_8.0.0/ARMTools/bin/../lib/gcc/arm-atollic-eabi/6.3.1/../../../../arm-atollic-eabi/lib/armv7-ar/thumb/fpu/libc_nano.a(lib_a-findfp.o)
 .text._cleanup
                0x0000000000000000        0xc /opt/Atollic_TrueSTUDIO_for_ARM_x86_64_8.0.0/ARMTools/bin/../lib/gcc/arm-atollic-eabi/6.3.1/../../../../arm-atollic-eabi/lib/armv7-ar/thumb/fpu/libc_nano.a(lib_a-findfp.o)
 .text.__sinit  0x0000000000000000       0x60 /opt/Atollic_TrueSTUDIO_for_ARM_x86_64_8.0.0/ARMTools/bin/../lib/gcc/arm-atollic-eabi/6.3.1/../../../../arm-atollic-eabi/lib/armv7-ar/thumb/fpu/libc_nano.a(lib_a-findfp.o)
 .text.__sfp    0x0000000000000000       0x78 /opt/Atollic_TrueSTUDIO_for_ARM_x86_64_8.0.0/ARMTools/bin/../lib/gcc/arm-atollic-eabi/6.3.1/../../../../arm-atollic-eabi/lib/armv7-ar/thumb/fpu/libc_nano.a(lib_a-findfp.o)
 .text.__sfp_lock_acquire
                0x0000000000000000        0x2 /opt/Atollic_TrueSTUDIO_for_ARM_x86_64_8.0.0/ARMTools/bin/../lib/gcc/arm-atollic-eabi/6.3.1/../../../../arm-atollic-eabi/lib/armv7-ar/thumb/fpu/libc_nano.a(lib_a-findfp.o)
 .text.__sfp_lock_release
                0x0000000000000000        0x2 /opt/Atollic_TrueSTUDIO_for_ARM_x86_64_8.0.0/ARMTools/bin/../lib/gcc/arm-atollic-eabi/6.3.1/../../../../arm-atollic-eabi/lib/armv7-ar/thumb/fpu/libc_nano.a(lib_a-findfp.o)
 .text.__sinit_lock_acquire
                0x0000000000000000        0x2 /opt/Atollic_TrueSTUDIO_for_ARM_x86_64_8.0.0/ARMTools/bin/../lib/gcc/arm-atollic-eabi/6.3.1/../../../../arm-atollic-eabi/lib/armv7-ar/thumb/fpu/libc_nano.a(lib_a-findfp.o)
 .text.__sinit_lock_release
                0x0000000000000000        0x2 /opt/Atollic_TrueSTUDIO_for_ARM_x86_64_8.0.0/ARMTools/bin/../lib/gcc/arm-atollic-eabi/6.3.1/../../../../arm-atollic-eabi/lib/armv7-ar/thumb/fpu/libc_nano.a(lib_a-findfp.o)
 .text.__fp_lock_all
                0x0000000000000000       0x14 /opt/Atollic_TrueSTUDIO_for_ARM_x86_64_8.0.0/ARMTools/bin/../lib/gcc/arm-atollic-eabi/6.3.1/../../../../arm-atollic-eabi/lib/armv7-ar/thumb/fpu/libc_nano.a(lib_a-findfp.o)
 .text.__fp_unlock_all
                0x0000000000000000       0x14 /opt/Atollic_TrueSTUDIO_for_ARM_x86_64_8.0.0/ARMTools/bin/../lib/gcc/arm-atollic-eabi/6.3.1/../../../../arm-atollic-eabi/lib/armv7-ar/thumb/fpu/libc_nano.a(lib_a-findfp.o)
 .text          0x0000000000000000        0x0 /opt/Atollic_TrueSTUDIO_for_ARM_x86_64_8.0.0/ARMTools/bin/../lib/gcc/arm-atollic-eabi/6.3.1/../../../../arm-atollic-eabi/lib/armv7-ar/thumb/fpu/libc_nano.a(lib_a-fwalk.o)
 .data          0x0000000000000000        0x0 /opt/Atollic_TrueSTUDIO_for_ARM_x86_64_8.0.0/ARMTools/bin/../lib/gcc/arm-atollic-eabi/6.3.1/../../../../arm-atollic-eabi/lib/armv7-ar/thumb/fpu/libc_nano.a(lib_a-fwalk.o)
 .bss           0x0000000000000000        0x0 /opt/Atollic_TrueSTUDIO_for_ARM_x86_64_8.0.0/ARMTools/bin/../lib/gcc/arm-atollic-eabi/6.3.1/../../../../arm-atollic-eabi/lib/armv7-ar/thumb/fpu/libc_nano.a(lib_a-fwalk.o)
 .text._fwalk   0x0000000000000000       0x38 /opt/Atollic_TrueSTUDIO_for_ARM_x86_64_8.0.0/ARMTools/bin/../lib/gcc/arm-atollic-eabi/6.3.1/../../../../arm-atollic-eabi/lib/armv7-ar/thumb/fpu/libc_nano.a(lib_a-fwalk.o)
 .text._fwalk_reent
                0x0000000000000000       0x3c /opt/Atollic_TrueSTUDIO_for_ARM_x86_64_8.0.0/ARMTools/bin/../lib/gcc/arm-atollic-eabi/6.3.1/../../../../arm-atollic-eabi/lib/armv7-ar/thumb/fpu/libc_nano.a(lib_a-fwalk.o)
 .debug_frame   0x0000000000000000       0x54 /opt/Atollic_TrueSTUDIO_for_ARM_x86_64_8.0.0/ARMTools/bin/../lib/gcc/arm-atollic-eabi/6.3.1/../../../../arm-atollic-eabi/lib/armv7-ar/thumb/fpu/libc_nano.a(lib_a-fwalk.o)
 .ARM.attributes
                0x0000000000000000       0x2d /opt/Atollic_TrueSTUDIO_for_ARM_x86_64_8.0.0/ARMTools/bin/../lib/gcc/arm-atollic-eabi/6.3.1/../../../../arm-atollic-eabi/lib/armv7-ar/thumb/fpu/libc_nano.a(lib_a-fwalk.o)
 .text          0x0000000000000000        0x0 /opt/Atollic_TrueSTUDIO_for_ARM_x86_64_8.0.0/ARMTools/bin/../lib/gcc/arm-atollic-eabi/6.3.1/../../../../arm-atollic-eabi/lib/armv7-ar/thumb/fpu/libc_nano.a(lib_a-impure.o)
 .data          0x0000000000000000        0x0 /opt/Atollic_TrueSTUDIO_for_ARM_x86_64_8.0.0/ARMTools/bin/../lib/gcc/arm-atollic-eabi/6.3.1/../../../../arm-atollic-eabi/lib/armv7-ar/thumb/fpu/libc_nano.a(lib_a-impure.o)
 .bss           0x0000000000000000        0x0 /opt/Atollic_TrueSTUDIO_for_ARM_x86_64_8.0.0/ARMTools/bin/../lib/gcc/arm-atollic-eabi/6.3.1/../../../../arm-atollic-eabi/lib/armv7-ar/thumb/fpu/libc_nano.a(lib_a-impure.o)
 .text          0x0000000000000000        0x0 /opt/Atollic_TrueSTUDIO_for_ARM_x86_64_8.0.0/ARMTools/bin/../lib/gcc/arm-atollic-eabi/6.3.1/../../../../arm-atollic-eabi/lib/armv7-ar/thumb/fpu/libc_nano.a(lib_a-malloc.o)
 .data          0x0000000000000000        0x0 /opt/Atollic_TrueSTUDIO_for_ARM_x86_64_8.0.0/ARMTools/bin/../lib/gcc/arm-atollic-eabi/6.3.1/../../../../arm-atollic-eabi/lib/armv7-ar/thumb/fpu/libc_nano.a(lib_a-malloc.o)
 .bss           0x0000000000000000        0x0 /opt/Atollic_TrueSTUDIO_for_ARM_x86_64_8.0.0/ARMTools/bin/../lib/gcc/arm-atollic-eabi/6.3.1/../../../../arm-atollic-eabi/lib/armv7-ar/thumb/fpu/libc_nano.a(lib_a-malloc.o)
 .text          0x0000000000000000        0x0 /opt/Atollic_TrueSTUDIO_for_ARM_x86_64_8.0.0/ARMTools/bin/../lib/gcc/arm-atollic-eabi/6.3.1/../../../../arm-atollic-eabi/lib/armv7-ar/thumb/fpu/libc_nano.a(lib_a-memchr-stub.o)
 .data          0x0000000000000000        0x0 /opt/Atollic_TrueSTUDIO_for_ARM_x86_64_8.0.0/ARMTools/bin/../lib/gcc/arm-atollic-eabi/6.3.1/../../../../arm-atollic-eabi/lib/armv7-ar/thumb/fpu/libc_nano.a(lib_a-memchr-stub.o)
 .bss           0x0000000000000000        0x0 /opt/Atollic_TrueSTUDIO_for_ARM_x86_64_8.0.0/ARMTools/bin/../lib/gcc/arm-atollic-eabi/6.3.1/../../../../arm-atollic-eabi/lib/armv7-ar/thumb/fpu/libc_nano.a(lib_a-memchr-stub.o)
 .text          0x0000000000000000        0x0 /opt/Atollic_TrueSTUDIO_for_ARM_x86_64_8.0.0/ARMTools/bin/../lib/gcc/arm-atollic-eabi/6.3.1/../../../../arm-atollic-eabi/lib/armv7-ar/thumb/fpu/libc_nano.a(lib_a-memcpy-stub.o)
 .data          0x0000000000000000        0x0 /opt/Atollic_TrueSTUDIO_for_ARM_x86_64_8.0.0/ARMTools/bin/../lib/gcc/arm-atollic-eabi/6.3.1/../../../../arm-atollic-eabi/lib/armv7-ar/thumb/fpu/libc_nano.a(lib_a-memcpy-stub.o)
 .bss           0x0000000000000000        0x0 /opt/Atollic_TrueSTUDIO_for_ARM_x86_64_8.0.0/ARMTools/bin/../lib/gcc/arm-atollic-eabi/6.3.1/../../../../arm-atollic-eabi/lib/armv7-ar/thumb/fpu/libc_nano.a(lib_a-memcpy-stub.o)
 .text          0x0000000000000000        0x0 /opt/Atollic_TrueSTUDIO_for_ARM_x86_64_8.0.0/ARMTools/bin/../lib/gcc/arm-atollic-eabi/6.3.1/../../../../arm-atollic-eabi/lib/armv7-ar/thumb/fpu/libc_nano.a(lib_a-memset.o)
 .data          0x0000000000000000        0x0 /opt/Atollic_TrueSTUDIO_for_ARM_x86_64_8.0.0/ARMTools/bin/../lib/gcc/arm-atollic-eabi/6.3.1/../../../../arm-atollic-eabi/lib/armv7-ar/thumb/fpu/libc_nano.a(lib_a-memset.o)
 .bss           0x0000000000000000        0x0 /opt/Atollic_TrueSTUDIO_for_ARM_x86_64_8.0.0/ARMTools/bin/../lib/gcc/arm-atollic-eabi/6.3.1/../../../../arm-atollic-eabi/lib/armv7-ar/thumb/fpu/libc_nano.a(lib_a-memset.o)
 .text          0x0000000000000000        0x0 /opt/Atollic_TrueSTUDIO_for_ARM_x86_64_8.0.0/ARMTools/bin/../lib/gcc/arm-atollic-eabi/6.3.1/../../../../arm-atollic-eabi/lib/armv7-ar/thumb/fpu/libc_nano.a(lib_a-nano-freer.o)
 .data          0x0000000000000000        0x0 /opt/Atollic_TrueSTUDIO_for_ARM_x86_64_8.0.0/ARMTools/bin/../lib/gcc/arm-atollic-eabi/6.3.1/../../../../arm-atollic-eabi/lib/armv7-ar/thumb/fpu/libc_nano.a(lib_a-nano-freer.o)
 .bss           0x0000000000000000        0x0 /opt/Atollic_TrueSTUDIO_for_ARM_x86_64_8.0.0/ARMTools/bin/../lib/gcc/arm-atollic-eabi/6.3.1/../../../../arm-atollic-eabi/lib/armv7-ar/thumb/fpu/libc_nano.a(lib_a-nano-freer.o)
 .text          0x0000000000000000        0x0 /opt/Atollic_TrueSTUDIO_for_ARM_x86_64_8.0.0/ARMTools/bin/../lib/gcc/arm-atollic-eabi/6.3.1/../../../../arm-atollic-eabi/lib/armv7-ar/thumb/fpu/libc_nano.a(lib_a-nano-mallocr.o)
 .data          0x0000000000000000        0x0 /opt/Atollic_TrueSTUDIO_for_ARM_x86_64_8.0.0/ARMTools/bin/../lib/gcc/arm-atollic-eabi/6.3.1/../../../../arm-atollic-eabi/lib/armv7-ar/thumb/fpu/libc_nano.a(lib_a-nano-mallocr.o)
 .bss           0x0000000000000000        0x0 /opt/Atollic_TrueSTUDIO_for_ARM_x86_64_8.0.0/ARMTools/bin/../lib/gcc/arm-atollic-eabi/6.3.1/../../../../arm-atollic-eabi/lib/armv7-ar/thumb/fpu/libc_nano.a(lib_a-nano-mallocr.o)
 .text          0x0000000000000000        0x0 /opt/Atollic_TrueSTUDIO_for_ARM_x86_64_8.0.0/ARMTools/bin/../lib/gcc/arm-atollic-eabi/6.3.1/../../../../arm-atollic-eabi/lib/armv7-ar/thumb/fpu/libc_nano.a(lib_a-nano-vfprintf_float.o)
 .data          0x0000000000000000        0x0 /opt/Atollic_TrueSTUDIO_for_ARM_x86_64_8.0.0/ARMTools/bin/../lib/gcc/arm-atollic-eabi/6.3.1/../../../../arm-atollic-eabi/lib/armv7-ar/thumb/fpu/libc_nano.a(lib_a-nano-vfprintf_float.o)
 .bss           0x0000000000000000        0x0 /opt/Atollic_TrueSTUDIO_for_ARM_x86_64_8.0.0/ARMTools/bin/../lib/gcc/arm-atollic-eabi/6.3.1/../../../../arm-atollic-eabi/lib/armv7-ar/thumb/fpu/libc_nano.a(lib_a-nano-vfprintf_float.o)
 .text          0x0000000000000000        0x0 /opt/Atollic_TrueSTUDIO_for_ARM_x86_64_8.0.0/ARMTools/bin/../lib/gcc/arm-atollic-eabi/6.3.1/../../../../arm-atollic-eabi/lib/armv7-ar/thumb/fpu/libc_nano.a(lib_a-nano-vfprintf_i.o)
 .data          0x0000000000000000        0x0 /opt/Atollic_TrueSTUDIO_for_ARM_x86_64_8.0.0/ARMTools/bin/../lib/gcc/arm-atollic-eabi/6.3.1/../../../../arm-atollic-eabi/lib/armv7-ar/thumb/fpu/libc_nano.a(lib_a-nano-vfprintf_i.o)
 .bss           0x0000000000000000        0x0 /opt/Atollic_TrueSTUDIO_for_ARM_x86_64_8.0.0/ARMTools/bin/../lib/gcc/arm-atollic-eabi/6.3.1/../../../../arm-atollic-eabi/lib/armv7-ar/thumb/fpu/libc_nano.a(lib_a-nano-vfprintf_i.o)
 .text          0x0000000000000000        0x0 /opt/Atollic_TrueSTUDIO_for_ARM_x86_64_8.0.0/ARMTools/bin/../lib/gcc/arm-atollic-eabi/6.3.1/../../../../arm-atollic-eabi/lib/armv7-ar/thumb/fpu/libc_nano.a(lib_a-nano-vfscanf_float.o)
 .data          0x0000000000000000        0x0 /opt/Atollic_TrueSTUDIO_for_ARM_x86_64_8.0.0/ARMTools/bin/../lib/gcc/arm-atollic-eabi/6.3.1/../../../../arm-atollic-eabi/lib/armv7-ar/thumb/fpu/libc_nano.a(lib_a-nano-vfscanf_float.o)
 .bss           0x0000000000000000        0x0 /opt/Atollic_TrueSTUDIO_for_ARM_x86_64_8.0.0/ARMTools/bin/../lib/gcc/arm-atollic-eabi/6.3.1/../../../../arm-atollic-eabi/lib/armv7-ar/thumb/fpu/libc_nano.a(lib_a-nano-vfscanf_float.o)
 .text          0x0000000000000000        0x0 /opt/Atollic_TrueSTUDIO_for_ARM_x86_64_8.0.0/ARMTools/bin/../lib/gcc/arm-atollic-eabi/6.3.1/../../../../arm-atollic-eabi/lib/armv7-ar/thumb/fpu/libc_nano.a(lib_a-on_exit_args.o)
 .data          0x0000000000000000        0x0 /opt/Atollic_TrueSTUDIO_for_ARM_x86_64_8.0.0/ARMTools/bin/../lib/gcc/arm-atollic-eabi/6.3.1/../../../../arm-atollic-eabi/lib/armv7-ar/thumb/fpu/libc_nano.a(lib_a-on_exit_args.o)
 .bss           0x0000000000000000        0x0 /opt/Atollic_TrueSTUDIO_for_ARM_x86_64_8.0.0/ARMTools/bin/../lib/gcc/arm-atollic-eabi/6.3.1/../../../../arm-atollic-eabi/lib/armv7-ar/thumb/fpu/libc_nano.a(lib_a-on_exit_args.o)
 .bss._on_exit_args_instance
                0x0000000000000000      0x108 /opt/Atollic_TrueSTUDIO_for_ARM_x86_64_8.0.0/ARMTools/bin/../lib/gcc/arm-atollic-eabi/6.3.1/../../../../arm-atollic-eabi/lib/armv7-ar/thumb/fpu/libc_nano.a(lib_a-on_exit_args.o)
 .rodata.__on_exit_args
                0x0000000000000000        0x4 /opt/Atollic_TrueSTUDIO_for_ARM_x86_64_8.0.0/ARMTools/bin/../lib/gcc/arm-atollic-eabi/6.3.1/../../../../arm-atollic-eabi/lib/armv7-ar/thumb/fpu/libc_nano.a(lib_a-on_exit_args.o)
 .ARM.attributes
                0x0000000000000000       0x2d /opt/Atollic_TrueSTUDIO_for_ARM_x86_64_8.0.0/ARMTools/bin/../lib/gcc/arm-atollic-eabi/6.3.1/../../../../arm-atollic-eabi/lib/armv7-ar/thumb/fpu/libc_nano.a(lib_a-on_exit_args.o)
 .text          0x0000000000000000        0x0 /opt/Atollic_TrueSTUDIO_for_ARM_x86_64_8.0.0/ARMTools/bin/../lib/gcc/arm-atollic-eabi/6.3.1/../../../../arm-atollic-eabi/lib/armv7-ar/thumb/fpu/libc_nano.a(lib_a-reent.o)
 .data          0x0000000000000000        0x0 /opt/Atollic_TrueSTUDIO_for_ARM_x86_64_8.0.0/ARMTools/bin/../lib/gcc/arm-atollic-eabi/6.3.1/../../../../arm-atollic-eabi/lib/armv7-ar/thumb/fpu/libc_nano.a(lib_a-reent.o)
 .bss           0x0000000000000000        0x0 /opt/Atollic_TrueSTUDIO_for_ARM_x86_64_8.0.0/ARMTools/bin/../lib/gcc/arm-atollic-eabi/6.3.1/../../../../arm-atollic-eabi/lib/armv7-ar/thumb/fpu/libc_nano.a(lib_a-reent.o)
 .text.cleanup_glue
                0x0000000000000000       0x1a /opt/Atollic_TrueSTUDIO_for_ARM_x86_64_8.0.0/ARMTools/bin/../lib/gcc/arm-atollic-eabi/6.3.1/../../../../arm-atollic-eabi/lib/armv7-ar/thumb/fpu/libc_nano.a(lib_a-reent.o)
 .text._reclaim_reent
                0x0000000000000000       0xb8 /opt/Atollic_TrueSTUDIO_for_ARM_x86_64_8.0.0/ARMTools/bin/../lib/gcc/arm-atollic-eabi/6.3.1/../../../../arm-atollic-eabi/lib/armv7-ar/thumb/fpu/libc_nano.a(lib_a-reent.o)
 .text          0x0000000000000000        0x0 /opt/Atollic_TrueSTUDIO_for_ARM_x86_64_8.0.0/ARMTools/bin/../lib/gcc/arm-atollic-eabi/6.3.1/../../../../arm-atollic-eabi/lib/armv7-ar/thumb/fpu/libc_nano.a(lib_a-refill.o)
 .data          0x0000000000000000        0x0 /opt/Atollic_TrueSTUDIO_for_ARM_x86_64_8.0.0/ARMTools/bin/../lib/gcc/arm-atollic-eabi/6.3.1/../../../../arm-atollic-eabi/lib/armv7-ar/thumb/fpu/libc_nano.a(lib_a-refill.o)
 .bss           0x0000000000000000        0x0 /opt/Atollic_TrueSTUDIO_for_ARM_x86_64_8.0.0/ARMTools/bin/../lib/gcc/arm-atollic-eabi/6.3.1/../../../../arm-atollic-eabi/lib/armv7-ar/thumb/fpu/libc_nano.a(lib_a-refill.o)
 .text.lflush   0x0000000000000000       0x12 /opt/Atollic_TrueSTUDIO_for_ARM_x86_64_8.0.0/ARMTools/bin/../lib/gcc/arm-atollic-eabi/6.3.1/../../../../arm-atollic-eabi/lib/armv7-ar/thumb/fpu/libc_nano.a(lib_a-refill.o)
 .text.__srefill_r
                0x0000000000000000      0x114 /opt/Atollic_TrueSTUDIO_for_ARM_x86_64_8.0.0/ARMTools/bin/../lib/gcc/arm-atollic-eabi/6.3.1/../../../../arm-atollic-eabi/lib/armv7-ar/thumb/fpu/libc_nano.a(lib_a-refill.o)
 .debug_frame   0x0000000000000000       0x40 /opt/Atollic_TrueSTUDIO_for_ARM_x86_64_8.0.0/ARMTools/bin/../lib/gcc/arm-atollic-eabi/6.3.1/../../../../arm-atollic-eabi/lib/armv7-ar/thumb/fpu/libc_nano.a(lib_a-refill.o)
 .ARM.attributes
                0x0000000000000000       0x2d /opt/Atollic_TrueSTUDIO_for_ARM_x86_64_8.0.0/ARMTools/bin/../lib/gcc/arm-atollic-eabi/6.3.1/../../../../arm-atollic-eabi/lib/armv7-ar/thumb/fpu/libc_nano.a(lib_a-refill.o)
 .text          0x0000000000000000        0x0 /opt/Atollic_TrueSTUDIO_for_ARM_x86_64_8.0.0/ARMTools/bin/../lib/gcc/arm-atollic-eabi/6.3.1/../../../../arm-atollic-eabi/lib/armv7-ar/thumb/fpu/libc_nano.a(lib_a-rget.o)
 .data          0x0000000000000000        0x0 /opt/Atollic_TrueSTUDIO_for_ARM_x86_64_8.0.0/ARMTools/bin/../lib/gcc/arm-atollic-eabi/6.3.1/../../../../arm-atollic-eabi/lib/armv7-ar/thumb/fpu/libc_nano.a(lib_a-rget.o)
 .bss           0x0000000000000000        0x0 /opt/Atollic_TrueSTUDIO_for_ARM_x86_64_8.0.0/ARMTools/bin/../lib/gcc/arm-atollic-eabi/6.3.1/../../../../arm-atollic-eabi/lib/armv7-ar/thumb/fpu/libc_nano.a(lib_a-rget.o)
 .text.__srget_r
                0x0000000000000000       0x58 /opt/Atollic_TrueSTUDIO_for_ARM_x86_64_8.0.0/ARMTools/bin/../lib/gcc/arm-atollic-eabi/6.3.1/../../../../arm-atollic-eabi/lib/armv7-ar/thumb/fpu/libc_nano.a(lib_a-rget.o)
 .text.__srget  0x0000000000000000       0x10 /opt/Atollic_TrueSTUDIO_for_ARM_x86_64_8.0.0/ARMTools/bin/../lib/gcc/arm-atollic-eabi/6.3.1/../../../../arm-atollic-eabi/lib/armv7-ar/thumb/fpu/libc_nano.a(lib_a-rget.o)
 .debug_frame   0x0000000000000000       0x3c /opt/Atollic_TrueSTUDIO_for_ARM_x86_64_8.0.0/ARMTools/bin/../lib/gcc/arm-atollic-eabi/6.3.1/../../../../arm-atollic-eabi/lib/armv7-ar/thumb/fpu/libc_nano.a(lib_a-rget.o)
 .ARM.attributes
                0x0000000000000000       0x2d /opt/Atollic_TrueSTUDIO_for_ARM_x86_64_8.0.0/ARMTools/bin/../lib/gcc/arm-atollic-eabi/6.3.1/../../../../arm-atollic-eabi/lib/armv7-ar/thumb/fpu/libc_nano.a(lib_a-rget.o)
 .text          0x0000000000000000        0x0 /opt/Atollic_TrueSTUDIO_for_ARM_x86_64_8.0.0/ARMTools/bin/../lib/gcc/arm-atollic-eabi/6.3.1/../../../../arm-atollic-eabi/lib/armv7-ar/thumb/fpu/libc_nano.a(lib_a-sbrkr.o)
 .data          0x0000000000000000        0x0 /opt/Atollic_TrueSTUDIO_for_ARM_x86_64_8.0.0/ARMTools/bin/../lib/gcc/arm-atollic-eabi/6.3.1/../../../../arm-atollic-eabi/lib/armv7-ar/thumb/fpu/libc_nano.a(lib_a-sbrkr.o)
 .bss           0x0000000000000000        0x0 /opt/Atollic_TrueSTUDIO_for_ARM_x86_64_8.0.0/ARMTools/bin/../lib/gcc/arm-atollic-eabi/6.3.1/../../../../arm-atollic-eabi/lib/armv7-ar/thumb/fpu/libc_nano.a(lib_a-sbrkr.o)
 .text          0x0000000000000000        0x0 /opt/Atollic_TrueSTUDIO_for_ARM_x86_64_8.0.0/ARMTools/bin/../lib/gcc/arm-atollic-eabi/6.3.1/../../../../arm-atollic-eabi/lib/armv7-ar/thumb/fpu/libc_nano.a(lib_a-setbuf.o)
 .data          0x0000000000000000        0x0 /opt/Atollic_TrueSTUDIO_for_ARM_x86_64_8.0.0/ARMTools/bin/../lib/gcc/arm-atollic-eabi/6.3.1/../../../../arm-atollic-eabi/lib/armv7-ar/thumb/fpu/libc_nano.a(lib_a-setbuf.o)
 .bss           0x0000000000000000        0x0 /opt/Atollic_TrueSTUDIO_for_ARM_x86_64_8.0.0/ARMTools/bin/../lib/gcc/arm-atollic-eabi/6.3.1/../../../../arm-atollic-eabi/lib/armv7-ar/thumb/fpu/libc_nano.a(lib_a-setbuf.o)
 .text.setbuf   0x0000000000000000       0x10 /opt/Atollic_TrueSTUDIO_for_ARM_x86_64_8.0.0/ARMTools/bin/../lib/gcc/arm-atollic-eabi/6.3.1/../../../../arm-atollic-eabi/lib/armv7-ar/thumb/fpu/libc_nano.a(lib_a-setbuf.o)
 .debug_frame   0x0000000000000000       0x20 /opt/Atollic_TrueSTUDIO_for_ARM_x86_64_8.0.0/ARMTools/bin/../lib/gcc/arm-atollic-eabi/6.3.1/../../../../arm-atollic-eabi/lib/armv7-ar/thumb/fpu/libc_nano.a(lib_a-setbuf.o)
 .ARM.attributes
                0x0000000000000000       0x2d /opt/Atollic_TrueSTUDIO_for_ARM_x86_64_8.0.0/ARMTools/bin/../lib/gcc/arm-atollic-eabi/6.3.1/../../../../arm-atollic-eabi/lib/armv7-ar/thumb/fpu/libc_nano.a(lib_a-setbuf.o)
 .text          0x0000000000000000        0x0 /opt/Atollic_TrueSTUDIO_for_ARM_x86_64_8.0.0/ARMTools/bin/../lib/gcc/arm-atollic-eabi/6.3.1/../../../../arm-atollic-eabi/lib/armv7-ar/thumb/fpu/libc_nano.a(lib_a-setvbuf.o)
 .data          0x0000000000000000        0x0 /opt/Atollic_TrueSTUDIO_for_ARM_x86_64_8.0.0/ARMTools/bin/../lib/gcc/arm-atollic-eabi/6.3.1/../../../../arm-atollic-eabi/lib/armv7-ar/thumb/fpu/libc_nano.a(lib_a-setvbuf.o)
 .bss           0x0000000000000000        0x0 /opt/Atollic_TrueSTUDIO_for_ARM_x86_64_8.0.0/ARMTools/bin/../lib/gcc/arm-atollic-eabi/6.3.1/../../../../arm-atollic-eabi/lib/armv7-ar/thumb/fpu/libc_nano.a(lib_a-setvbuf.o)
 .text.setvbuf  0x0000000000000000      0x15c /opt/Atollic_TrueSTUDIO_for_ARM_x86_64_8.0.0/ARMTools/bin/../lib/gcc/arm-atollic-eabi/6.3.1/../../../../arm-atollic-eabi/lib/armv7-ar/thumb/fpu/libc_nano.a(lib_a-setvbuf.o)
 .debug_frame   0x0000000000000000       0x38 /opt/Atollic_TrueSTUDIO_for_ARM_x86_64_8.0.0/ARMTools/bin/../lib/gcc/arm-atollic-eabi/6.3.1/../../../../arm-atollic-eabi/lib/armv7-ar/thumb/fpu/libc_nano.a(lib_a-setvbuf.o)
 .ARM.attributes
                0x0000000000000000       0x2d /opt/Atollic_TrueSTUDIO_for_ARM_x86_64_8.0.0/ARMTools/bin/../lib/gcc/arm-atollic-eabi/6.3.1/../../../../arm-atollic-eabi/lib/armv7-ar/thumb/fpu/libc_nano.a(lib_a-setvbuf.o)
 .text          0x0000000000000000        0x0 /opt/Atollic_TrueSTUDIO_for_ARM_x86_64_8.0.0/ARMTools/bin/../lib/gcc/arm-atollic-eabi/6.3.1/../../../../arm-atollic-eabi/lib/armv7-ar/thumb/fpu/libc_nano.a(lib_a-sf_nan.o)
 .data          0x0000000000000000        0x0 /opt/Atollic_TrueSTUDIO_for_ARM_x86_64_8.0.0/ARMTools/bin/../lib/gcc/arm-atollic-eabi/6.3.1/../../../../arm-atollic-eabi/lib/armv7-ar/thumb/fpu/libc_nano.a(lib_a-sf_nan.o)
 .bss           0x0000000000000000        0x0 /opt/Atollic_TrueSTUDIO_for_ARM_x86_64_8.0.0/ARMTools/bin/../lib/gcc/arm-atollic-eabi/6.3.1/../../../../arm-atollic-eabi/lib/armv7-ar/thumb/fpu/libc_nano.a(lib_a-sf_nan.o)
 .text          0x0000000000000000        0x0 /opt/Atollic_TrueSTUDIO_for_ARM_x86_64_8.0.0/ARMTools/bin/../lib/gcc/arm-atollic-eabi/6.3.1/../../../../arm-atollic-eabi/lib/armv7-ar/thumb/fpu/libc_nano.a(lib_a-signal.o)
 .data          0x0000000000000000        0x0 /opt/Atollic_TrueSTUDIO_for_ARM_x86_64_8.0.0/ARMTools/bin/../lib/gcc/arm-atollic-eabi/6.3.1/../../../../arm-atollic-eabi/lib/armv7-ar/thumb/fpu/libc_nano.a(lib_a-signal.o)
 .bss           0x0000000000000000        0x0 /opt/Atollic_TrueSTUDIO_for_ARM_x86_64_8.0.0/ARMTools/bin/../lib/gcc/arm-atollic-eabi/6.3.1/../../../../arm-atollic-eabi/lib/armv7-ar/thumb/fpu/libc_nano.a(lib_a-signal.o)
 .text._init_signal_r
                0x0000000000000000       0x2a /opt/Atollic_TrueSTUDIO_for_ARM_x86_64_8.0.0/ARMTools/bin/../lib/gcc/arm-atollic-eabi/6.3.1/../../../../arm-atollic-eabi/lib/armv7-ar/thumb/fpu/libc_nano.a(lib_a-signal.o)
 .text._signal_r
                0x0000000000000000       0x30 /opt/Atollic_TrueSTUDIO_for_ARM_x86_64_8.0.0/ARMTools/bin/../lib/gcc/arm-atollic-eabi/6.3.1/../../../../arm-atollic-eabi/lib/armv7-ar/thumb/fpu/libc_nano.a(lib_a-signal.o)
 .text._raise_r
                0x0000000000000000       0x50 /opt/Atollic_TrueSTUDIO_for_ARM_x86_64_8.0.0/ARMTools/bin/../lib/gcc/arm-atollic-eabi/6.3.1/../../../../arm-atollic-eabi/lib/armv7-ar/thumb/fpu/libc_nano.a(lib_a-signal.o)
 .text.__sigtramp_r
                0x0000000000000000       0x48 /opt/Atollic_TrueSTUDIO_for_ARM_x86_64_8.0.0/ARMTools/bin/../lib/gcc/arm-atollic-eabi/6.3.1/../../../../arm-atollic-eabi/lib/armv7-ar/thumb/fpu/libc_nano.a(lib_a-signal.o)
 .text.raise    0x0000000000000000       0x10 /opt/Atollic_TrueSTUDIO_for_ARM_x86_64_8.0.0/ARMTools/bin/../lib/gcc/arm-atollic-eabi/6.3.1/../../../../arm-atollic-eabi/lib/armv7-ar/thumb/fpu/libc_nano.a(lib_a-signal.o)
 .text.signal   0x0000000000000000       0x10 /opt/Atollic_TrueSTUDIO_for_ARM_x86_64_8.0.0/ARMTools/bin/../lib/gcc/arm-atollic-eabi/6.3.1/../../../../arm-atollic-eabi/lib/armv7-ar/thumb/fpu/libc_nano.a(lib_a-signal.o)
 .text._init_signal
                0x0000000000000000        0xc /opt/Atollic_TrueSTUDIO_for_ARM_x86_64_8.0.0/ARMTools/bin/../lib/gcc/arm-atollic-eabi/6.3.1/../../../../arm-atollic-eabi/lib/armv7-ar/thumb/fpu/libc_nano.a(lib_a-signal.o)
 .text.__sigtramp
                0x0000000000000000       0x10 /opt/Atollic_TrueSTUDIO_for_ARM_x86_64_8.0.0/ARMTools/bin/../lib/gcc/arm-atollic-eabi/6.3.1/../../../../arm-atollic-eabi/lib/armv7-ar/thumb/fpu/libc_nano.a(lib_a-signal.o)
 .debug_frame   0x0000000000000000       0xcc /opt/Atollic_TrueSTUDIO_for_ARM_x86_64_8.0.0/ARMTools/bin/../lib/gcc/arm-atollic-eabi/6.3.1/../../../../arm-atollic-eabi/lib/armv7-ar/thumb/fpu/libc_nano.a(lib_a-signal.o)
 .ARM.attributes
                0x0000000000000000       0x2d /opt/Atollic_TrueSTUDIO_for_ARM_x86_64_8.0.0/ARMTools/bin/../lib/gcc/arm-atollic-eabi/6.3.1/../../../../arm-atollic-eabi/lib/armv7-ar/thumb/fpu/libc_nano.a(lib_a-signal.o)
 .text          0x0000000000000000        0x0 /opt/Atollic_TrueSTUDIO_for_ARM_x86_64_8.0.0/ARMTools/bin/../lib/gcc/arm-atollic-eabi/6.3.1/../../../../arm-atollic-eabi/lib/armv7-ar/thumb/fpu/libc_nano.a(lib_a-signalr.o)
 .data          0x0000000000000000        0x0 /opt/Atollic_TrueSTUDIO_for_ARM_x86_64_8.0.0/ARMTools/bin/../lib/gcc/arm-atollic-eabi/6.3.1/../../../../arm-atollic-eabi/lib/armv7-ar/thumb/fpu/libc_nano.a(lib_a-signalr.o)
 .bss           0x0000000000000000        0x0 /opt/Atollic_TrueSTUDIO_for_ARM_x86_64_8.0.0/ARMTools/bin/../lib/gcc/arm-atollic-eabi/6.3.1/../../../../arm-atollic-eabi/lib/armv7-ar/thumb/fpu/libc_nano.a(lib_a-signalr.o)
 .text._kill_r  0x0000000000000000       0x24 /opt/Atollic_TrueSTUDIO_for_ARM_x86_64_8.0.0/ARMTools/bin/../lib/gcc/arm-atollic-eabi/6.3.1/../../../../arm-atollic-eabi/lib/armv7-ar/thumb/fpu/libc_nano.a(lib_a-signalr.o)
 .text._getpid_r
                0x0000000000000000        0x4 /opt/Atollic_TrueSTUDIO_for_ARM_x86_64_8.0.0/ARMTools/bin/../lib/gcc/arm-atollic-eabi/6.3.1/../../../../arm-atollic-eabi/lib/armv7-ar/thumb/fpu/libc_nano.a(lib_a-signalr.o)
 .debug_frame   0x0000000000000000       0x3c /opt/Atollic_TrueSTUDIO_for_ARM_x86_64_8.0.0/ARMTools/bin/../lib/gcc/arm-atollic-eabi/6.3.1/../../../../arm-atollic-eabi/lib/armv7-ar/thumb/fpu/libc_nano.a(lib_a-signalr.o)
 .ARM.attributes
                0x0000000000000000       0x2d /opt/Atollic_TrueSTUDIO_for_ARM_x86_64_8.0.0/ARMTools/bin/../lib/gcc/arm-atollic-eabi/6.3.1/../../../../arm-atollic-eabi/lib/armv7-ar/thumb/fpu/libc_nano.a(lib_a-signalr.o)
 .text          0x0000000000000000        0x0 /opt/Atollic_TrueSTUDIO_for_ARM_x86_64_8.0.0/ARMTools/bin/../lib/gcc/arm-atollic-eabi/6.3.1/../../../../arm-atollic-eabi/lib/armv7-ar/thumb/fpu/libc_nano.a(lib_a-sprintf.o)
 .data          0x0000000000000000        0x0 /opt/Atollic_TrueSTUDIO_for_ARM_x86_64_8.0.0/ARMTools/bin/../lib/gcc/arm-atollic-eabi/6.3.1/../../../../arm-atollic-eabi/lib/armv7-ar/thumb/fpu/libc_nano.a(lib_a-sprintf.o)
 .bss           0x0000000000000000        0x0 /opt/Atollic_TrueSTUDIO_for_ARM_x86_64_8.0.0/ARMTools/bin/../lib/gcc/arm-atollic-eabi/6.3.1/../../../../arm-atollic-eabi/lib/armv7-ar/thumb/fpu/libc_nano.a(lib_a-sprintf.o)
 .text._sprintf_r
                0x0000000000000000       0x40 /opt/Atollic_TrueSTUDIO_for_ARM_x86_64_8.0.0/ARMTools/bin/../lib/gcc/arm-atollic-eabi/6.3.1/../../../../arm-atollic-eabi/lib/armv7-ar/thumb/fpu/libc_nano.a(lib_a-sprintf.o)
 .text          0x0000000000000000        0x0 /opt/Atollic_TrueSTUDIO_for_ARM_x86_64_8.0.0/ARMTools/bin/../lib/gcc/arm-atollic-eabi/6.3.1/../../../../arm-atollic-eabi/lib/armv7-ar/thumb/fpu/libc_nano.a(lib_a-sscanf.o)
 .data          0x0000000000000000        0x0 /opt/Atollic_TrueSTUDIO_for_ARM_x86_64_8.0.0/ARMTools/bin/../lib/gcc/arm-atollic-eabi/6.3.1/../../../../arm-atollic-eabi/lib/armv7-ar/thumb/fpu/libc_nano.a(lib_a-sscanf.o)
 .bss           0x0000000000000000        0x0 /opt/Atollic_TrueSTUDIO_for_ARM_x86_64_8.0.0/ARMTools/bin/../lib/gcc/arm-atollic-eabi/6.3.1/../../../../arm-atollic-eabi/lib/armv7-ar/thumb/fpu/libc_nano.a(lib_a-sscanf.o)
 .text.sscanf   0x0000000000000000       0x54 /opt/Atollic_TrueSTUDIO_for_ARM_x86_64_8.0.0/ARMTools/bin/../lib/gcc/arm-atollic-eabi/6.3.1/../../../../arm-atollic-eabi/lib/armv7-ar/thumb/fpu/libc_nano.a(lib_a-sscanf.o)
 .text._sscanf_r
                0x0000000000000000       0x54 /opt/Atollic_TrueSTUDIO_for_ARM_x86_64_8.0.0/ARMTools/bin/../lib/gcc/arm-atollic-eabi/6.3.1/../../../../arm-atollic-eabi/lib/armv7-ar/thumb/fpu/libc_nano.a(lib_a-sscanf.o)
 .debug_frame   0x0000000000000000       0x80 /opt/Atollic_TrueSTUDIO_for_ARM_x86_64_8.0.0/ARMTools/bin/../lib/gcc/arm-atollic-eabi/6.3.1/../../../../arm-atollic-eabi/lib/armv7-ar/thumb/fpu/libc_nano.a(lib_a-sscanf.o)
 .ARM.attributes
                0x0000000000000000       0x2d /opt/Atollic_TrueSTUDIO_for_ARM_x86_64_8.0.0/ARMTools/bin/../lib/gcc/arm-atollic-eabi/6.3.1/../../../../arm-atollic-eabi/lib/armv7-ar/thumb/fpu/libc_nano.a(lib_a-sscanf.o)
 .text          0x0000000000000000        0x0 /opt/Atollic_TrueSTUDIO_for_ARM_x86_64_8.0.0/ARMTools/bin/../lib/gcc/arm-atollic-eabi/6.3.1/../../../../arm-atollic-eabi/lib/armv7-ar/thumb/fpu/libc_nano.a(lib_a-stdio.o)
 .data          0x0000000000000000        0x0 /opt/Atollic_TrueSTUDIO_for_ARM_x86_64_8.0.0/ARMTools/bin/../lib/gcc/arm-atollic-eabi/6.3.1/../../../../arm-atollic-eabi/lib/armv7-ar/thumb/fpu/libc_nano.a(lib_a-stdio.o)
 .bss           0x0000000000000000        0x0 /opt/Atollic_TrueSTUDIO_for_ARM_x86_64_8.0.0/ARMTools/bin/../lib/gcc/arm-atollic-eabi/6.3.1/../../../../arm-atollic-eabi/lib/armv7-ar/thumb/fpu/libc_nano.a(lib_a-stdio.o)
 .text.__sread  0x0000000000000000       0x22 /opt/Atollic_TrueSTUDIO_for_ARM_x86_64_8.0.0/ARMTools/bin/../lib/gcc/arm-atollic-eabi/6.3.1/../../../../arm-atollic-eabi/lib/armv7-ar/thumb/fpu/libc_nano.a(lib_a-stdio.o)
 .text.__seofread
                0x0000000000000000        0x4 /opt/Atollic_TrueSTUDIO_for_ARM_x86_64_8.0.0/ARMTools/bin/../lib/gcc/arm-atollic-eabi/6.3.1/../../../../arm-atollic-eabi/lib/armv7-ar/thumb/fpu/libc_nano.a(lib_a-stdio.o)
 .text.__swrite
                0x0000000000000000       0x38 /opt/Atollic_TrueSTUDIO_for_ARM_x86_64_8.0.0/ARMTools/bin/../lib/gcc/arm-atollic-eabi/6.3.1/../../../../arm-atollic-eabi/lib/armv7-ar/thumb/fpu/libc_nano.a(lib_a-stdio.o)
 .text.__sseek  0x0000000000000000       0x24 /opt/Atollic_TrueSTUDIO_for_ARM_x86_64_8.0.0/ARMTools/bin/../lib/gcc/arm-atollic-eabi/6.3.1/../../../../arm-atollic-eabi/lib/armv7-ar/thumb/fpu/libc_nano.a(lib_a-stdio.o)
 .text.__sclose
                0x0000000000000000        0x8 /opt/Atollic_TrueSTUDIO_for_ARM_x86_64_8.0.0/ARMTools/bin/../lib/gcc/arm-atollic-eabi/6.3.1/../../../../arm-atollic-eabi/lib/armv7-ar/thumb/fpu/libc_nano.a(lib_a-stdio.o)
 .debug_frame   0x0000000000000000       0x88 /opt/Atollic_TrueSTUDIO_for_ARM_x86_64_8.0.0/ARMTools/bin/../lib/gcc/arm-atollic-eabi/6.3.1/../../../../arm-atollic-eabi/lib/armv7-ar/thumb/fpu/libc_nano.a(lib_a-stdio.o)
 .ARM.attributes
                0x0000000000000000       0x2d /opt/Atollic_TrueSTUDIO_for_ARM_x86_64_8.0.0/ARMTools/bin/../lib/gcc/arm-atollic-eabi/6.3.1/../../../../arm-atollic-eabi/lib/armv7-ar/thumb/fpu/libc_nano.a(lib_a-stdio.o)
 .text          0x0000000000000000       0x14 /opt/Atollic_TrueSTUDIO_for_ARM_x86_64_8.0.0/ARMTools/bin/../lib/gcc/arm-atollic-eabi/6.3.1/../../../../arm-atollic-eabi/lib/armv7-ar/thumb/fpu/libc_nano.a(lib_a-strcmp.o)
 .data          0x0000000000000000        0x0 /opt/Atollic_TrueSTUDIO_for_ARM_x86_64_8.0.0/ARMTools/bin/../lib/gcc/arm-atollic-eabi/6.3.1/../../../../arm-atollic-eabi/lib/armv7-ar/thumb/fpu/libc_nano.a(lib_a-strcmp.o)
 .bss           0x0000000000000000        0x0 /opt/Atollic_TrueSTUDIO_for_ARM_x86_64_8.0.0/ARMTools/bin/../lib/gcc/arm-atollic-eabi/6.3.1/../../../../arm-atollic-eabi/lib/armv7-ar/thumb/fpu/libc_nano.a(lib_a-strcmp.o)
 .debug_frame   0x0000000000000000       0x20 /opt/Atollic_TrueSTUDIO_for_ARM_x86_64_8.0.0/ARMTools/bin/../lib/gcc/arm-atollic-eabi/6.3.1/../../../../arm-atollic-eabi/lib/armv7-ar/thumb/fpu/libc_nano.a(lib_a-strcmp.o)
 .ARM.attributes
                0x0000000000000000       0x19 /opt/Atollic_TrueSTUDIO_for_ARM_x86_64_8.0.0/ARMTools/bin/../lib/gcc/arm-atollic-eabi/6.3.1/../../../../arm-atollic-eabi/lib/armv7-ar/thumb/fpu/libc_nano.a(lib_a-strcmp.o)
 .data          0x0000000000000000        0x0 /opt/Atollic_TrueSTUDIO_for_ARM_x86_64_8.0.0/ARMTools/bin/../lib/gcc/arm-atollic-eabi/6.3.1/../../../../arm-atollic-eabi/lib/armv7-ar/thumb/fpu/libc_nano.a(lib_a-strlen.o)
 .bss           0x0000000000000000        0x0 /opt/Atollic_TrueSTUDIO_for_ARM_x86_64_8.0.0/ARMTools/bin/../lib/gcc/arm-atollic-eabi/6.3.1/../../../../arm-atollic-eabi/lib/armv7-ar/thumb/fpu/libc_nano.a(lib_a-strlen.o)
 .text          0x0000000000000000        0x0 /opt/Atollic_TrueSTUDIO_for_ARM_x86_64_8.0.0/ARMTools/bin/../lib/gcc/arm-atollic-eabi/6.3.1/../../../../arm-atollic-eabi/lib/armv7-ar/thumb/fpu/libc_nano.a(lib_a-strncmp.o)
 .data          0x0000000000000000        0x0 /opt/Atollic_TrueSTUDIO_for_ARM_x86_64_8.0.0/ARMTools/bin/../lib/gcc/arm-atollic-eabi/6.3.1/../../../../arm-atollic-eabi/lib/armv7-ar/thumb/fpu/libc_nano.a(lib_a-strncmp.o)
 .bss           0x0000000000000000        0x0 /opt/Atollic_TrueSTUDIO_for_ARM_x86_64_8.0.0/ARMTools/bin/../lib/gcc/arm-atollic-eabi/6.3.1/../../../../arm-atollic-eabi/lib/armv7-ar/thumb/fpu/libc_nano.a(lib_a-strncmp.o)
 .text          0x0000000000000000        0x0 /opt/Atollic_TrueSTUDIO_for_ARM_x86_64_8.0.0/ARMTools/bin/../lib/gcc/arm-atollic-eabi/6.3.1/../../../../arm-atollic-eabi/lib/armv7-ar/thumb/fpu/libc_nano.a(lib_a-strncpy.o)
 .data          0x0000000000000000        0x0 /opt/Atollic_TrueSTUDIO_for_ARM_x86_64_8.0.0/ARMTools/bin/../lib/gcc/arm-atollic-eabi/6.3.1/../../../../arm-atollic-eabi/lib/armv7-ar/thumb/fpu/libc_nano.a(lib_a-strncpy.o)
 .bss           0x0000000000000000        0x0 /opt/Atollic_TrueSTUDIO_for_ARM_x86_64_8.0.0/ARMTools/bin/../lib/gcc/arm-atollic-eabi/6.3.1/../../../../arm-atollic-eabi/lib/armv7-ar/thumb/fpu/libc_nano.a(lib_a-strncpy.o)
 .text.strncpy  0x0000000000000000       0x2a /opt/Atollic_TrueSTUDIO_for_ARM_x86_64_8.0.0/ARMTools/bin/../lib/gcc/arm-atollic-eabi/6.3.1/../../../../arm-atollic-eabi/lib/armv7-ar/thumb/fpu/libc_nano.a(lib_a-strncpy.o)
 .debug_frame   0x0000000000000000       0x2c /opt/Atollic_TrueSTUDIO_for_ARM_x86_64_8.0.0/ARMTools/bin/../lib/gcc/arm-atollic-eabi/6.3.1/../../../../arm-atollic-eabi/lib/armv7-ar/thumb/fpu/libc_nano.a(lib_a-strncpy.o)
 .ARM.attributes
                0x0000000000000000       0x2d /opt/Atollic_TrueSTUDIO_for_ARM_x86_64_8.0.0/ARMTools/bin/../lib/gcc/arm-atollic-eabi/6.3.1/../../../../arm-atollic-eabi/lib/armv7-ar/thumb/fpu/libc_nano.a(lib_a-strncpy.o)
 .text          0x0000000000000000        0x0 /opt/Atollic_TrueSTUDIO_for_ARM_x86_64_8.0.0/ARMTools/bin/../lib/gcc/arm-atollic-eabi/6.3.1/../../../../arm-atollic-eabi/lib/armv7-ar/thumb/fpu/libc_nano.a(lib_a-strtod.o)
 .data          0x0000000000000000        0x0 /opt/Atollic_TrueSTUDIO_for_ARM_x86_64_8.0.0/ARMTools/bin/../lib/gcc/arm-atollic-eabi/6.3.1/../../../../arm-atollic-eabi/lib/armv7-ar/thumb/fpu/libc_nano.a(lib_a-strtod.o)
 .bss           0x0000000000000000        0x0 /opt/Atollic_TrueSTUDIO_for_ARM_x86_64_8.0.0/ARMTools/bin/../lib/gcc/arm-atollic-eabi/6.3.1/../../../../arm-atollic-eabi/lib/armv7-ar/thumb/fpu/libc_nano.a(lib_a-strtod.o)
 .text.strtod_l
                0x0000000000000000       0x14 /opt/Atollic_TrueSTUDIO_for_ARM_x86_64_8.0.0/ARMTools/bin/../lib/gcc/arm-atollic-eabi/6.3.1/../../../../arm-atollic-eabi/lib/armv7-ar/thumb/fpu/libc_nano.a(lib_a-strtod.o)
 .text.strtod   0x0000000000000000       0x28 /opt/Atollic_TrueSTUDIO_for_ARM_x86_64_8.0.0/ARMTools/bin/../lib/gcc/arm-atollic-eabi/6.3.1/../../../../arm-atollic-eabi/lib/armv7-ar/thumb/fpu/libc_nano.a(lib_a-strtod.o)
 .text.strtof_l
                0x0000000000000000       0x68 /opt/Atollic_TrueSTUDIO_for_ARM_x86_64_8.0.0/ARMTools/bin/../lib/gcc/arm-atollic-eabi/6.3.1/../../../../arm-atollic-eabi/lib/armv7-ar/thumb/fpu/libc_nano.a(lib_a-strtod.o)
 .text.strtof   0x0000000000000000       0x7c /opt/Atollic_TrueSTUDIO_for_ARM_x86_64_8.0.0/ARMTools/bin/../lib/gcc/arm-atollic-eabi/6.3.1/../../../../arm-atollic-eabi/lib/armv7-ar/thumb/fpu/libc_nano.a(lib_a-strtod.o)
 .text          0x0000000000000000        0x0 /opt/Atollic_TrueSTUDIO_for_ARM_x86_64_8.0.0/ARMTools/bin/../lib/gcc/arm-atollic-eabi/6.3.1/../../../../arm-atollic-eabi/lib/armv7-ar/thumb/fpu/libc_nano.a(lib_a-strtol.o)
 .data          0x0000000000000000        0x0 /opt/Atollic_TrueSTUDIO_for_ARM_x86_64_8.0.0/ARMTools/bin/../lib/gcc/arm-atollic-eabi/6.3.1/../../../../arm-atollic-eabi/lib/armv7-ar/thumb/fpu/libc_nano.a(lib_a-strtol.o)
 .bss           0x0000000000000000        0x0 /opt/Atollic_TrueSTUDIO_for_ARM_x86_64_8.0.0/ARMTools/bin/../lib/gcc/arm-atollic-eabi/6.3.1/../../../../arm-atollic-eabi/lib/armv7-ar/thumb/fpu/libc_nano.a(lib_a-strtol.o)
 .text.strtol_l
                0x0000000000000000       0x1c /opt/Atollic_TrueSTUDIO_for_ARM_x86_64_8.0.0/ARMTools/bin/../lib/gcc/arm-atollic-eabi/6.3.1/../../../../arm-atollic-eabi/lib/armv7-ar/thumb/fpu/libc_nano.a(lib_a-strtol.o)
 .text.strtol   0x0000000000000000       0x2c /opt/Atollic_TrueSTUDIO_for_ARM_x86_64_8.0.0/ARMTools/bin/../lib/gcc/arm-atollic-eabi/6.3.1/../../../../arm-atollic-eabi/lib/armv7-ar/thumb/fpu/libc_nano.a(lib_a-strtol.o)
 .text          0x0000000000000000        0x0 /opt/Atollic_TrueSTUDIO_for_ARM_x86_64_8.0.0/ARMTools/bin/../lib/gcc/arm-atollic-eabi/6.3.1/../../../../arm-atollic-eabi/lib/armv7-ar/thumb/fpu/libc_nano.a(lib_a-writer.o)
 .data          0x0000000000000000        0x0 /opt/Atollic_TrueSTUDIO_for_ARM_x86_64_8.0.0/ARMTools/bin/../lib/gcc/arm-atollic-eabi/6.3.1/../../../../arm-atollic-eabi/lib/armv7-ar/thumb/fpu/libc_nano.a(lib_a-writer.o)
 .bss           0x0000000000000000        0x0 /opt/Atollic_TrueSTUDIO_for_ARM_x86_64_8.0.0/ARMTools/bin/../lib/gcc/arm-atollic-eabi/6.3.1/../../../../arm-atollic-eabi/lib/armv7-ar/thumb/fpu/libc_nano.a(lib_a-writer.o)
 .text._write_r
                0x0000000000000000       0x24 /opt/Atollic_TrueSTUDIO_for_ARM_x86_64_8.0.0/ARMTools/bin/../lib/gcc/arm-atollic-eabi/6.3.1/../../../../arm-atollic-eabi/lib/armv7-ar/thumb/fpu/libc_nano.a(lib_a-writer.o)
 .debug_frame   0x0000000000000000       0x2c /opt/Atollic_TrueSTUDIO_for_ARM_x86_64_8.0.0/ARMTools/bin/../lib/gcc/arm-atollic-eabi/6.3.1/../../../../arm-atollic-eabi/lib/armv7-ar/thumb/fpu/libc_nano.a(lib_a-writer.o)
 .ARM.attributes
                0x0000000000000000       0x2d /opt/Atollic_TrueSTUDIO_for_ARM_x86_64_8.0.0/ARMTools/bin/../lib/gcc/arm-atollic-eabi/6.3.1/../../../../arm-atollic-eabi/lib/armv7-ar/thumb/fpu/libc_nano.a(lib_a-writer.o)
 .text          0x0000000000000000        0x0 /opt/Atollic_TrueSTUDIO_for_ARM_x86_64_8.0.0/ARMTools/bin/../lib/gcc/arm-atollic-eabi/6.3.1/../../../../arm-atollic-eabi/lib/armv7-ar/thumb/fpu/libc_nano.a(lib_a-closer.o)
 .data          0x0000000000000000        0x0 /opt/Atollic_TrueSTUDIO_for_ARM_x86_64_8.0.0/ARMTools/bin/../lib/gcc/arm-atollic-eabi/6.3.1/../../../../arm-atollic-eabi/lib/armv7-ar/thumb/fpu/libc_nano.a(lib_a-closer.o)
 .bss           0x0000000000000000        0x0 /opt/Atollic_TrueSTUDIO_for_ARM_x86_64_8.0.0/ARMTools/bin/../lib/gcc/arm-atollic-eabi/6.3.1/../../../../arm-atollic-eabi/lib/armv7-ar/thumb/fpu/libc_nano.a(lib_a-closer.o)
 .text._close_r
                0x0000000000000000       0x20 /opt/Atollic_TrueSTUDIO_for_ARM_x86_64_8.0.0/ARMTools/bin/../lib/gcc/arm-atollic-eabi/6.3.1/../../../../arm-atollic-eabi/lib/armv7-ar/thumb/fpu/libc_nano.a(lib_a-closer.o)
 .debug_frame   0x0000000000000000       0x2c /opt/Atollic_TrueSTUDIO_for_ARM_x86_64_8.0.0/ARMTools/bin/../lib/gcc/arm-atollic-eabi/6.3.1/../../../../arm-atollic-eabi/lib/armv7-ar/thumb/fpu/libc_nano.a(lib_a-closer.o)
 .ARM.attributes
                0x0000000000000000       0x2d /opt/Atollic_TrueSTUDIO_for_ARM_x86_64_8.0.0/ARMTools/bin/../lib/gcc/arm-atollic-eabi/6.3.1/../../../../arm-atollic-eabi/lib/armv7-ar/thumb/fpu/libc_nano.a(lib_a-closer.o)
 .text          0x0000000000000000        0x0 /opt/Atollic_TrueSTUDIO_for_ARM_x86_64_8.0.0/ARMTools/bin/../lib/gcc/arm-atollic-eabi/6.3.1/../../../../arm-atollic-eabi/lib/armv7-ar/thumb/fpu/libc_nano.a(lib_a-dtoa.o)
 .data          0x0000000000000000        0x0 /opt/Atollic_TrueSTUDIO_for_ARM_x86_64_8.0.0/ARMTools/bin/../lib/gcc/arm-atollic-eabi/6.3.1/../../../../arm-atollic-eabi/lib/armv7-ar/thumb/fpu/libc_nano.a(lib_a-dtoa.o)
 .bss           0x0000000000000000        0x0 /opt/Atollic_TrueSTUDIO_for_ARM_x86_64_8.0.0/ARMTools/bin/../lib/gcc/arm-atollic-eabi/6.3.1/../../../../arm-atollic-eabi/lib/armv7-ar/thumb/fpu/libc_nano.a(lib_a-dtoa.o)
 .text          0x0000000000000000        0x0 /opt/Atollic_TrueSTUDIO_for_ARM_x86_64_8.0.0/ARMTools/bin/../lib/gcc/arm-atollic-eabi/6.3.1/../../../../arm-atollic-eabi/lib/armv7-ar/thumb/fpu/libc_nano.a(lib_a-fflush.o)
 .data          0x0000000000000000        0x0 /opt/Atollic_TrueSTUDIO_for_ARM_x86_64_8.0.0/ARMTools/bin/../lib/gcc/arm-atollic-eabi/6.3.1/../../../../arm-atollic-eabi/lib/armv7-ar/thumb/fpu/libc_nano.a(lib_a-fflush.o)
 .bss           0x0000000000000000        0x0 /opt/Atollic_TrueSTUDIO_for_ARM_x86_64_8.0.0/ARMTools/bin/../lib/gcc/arm-atollic-eabi/6.3.1/../../../../arm-atollic-eabi/lib/armv7-ar/thumb/fpu/libc_nano.a(lib_a-fflush.o)
 .text.__sflush_r
                0x0000000000000000      0x114 /opt/Atollic_TrueSTUDIO_for_ARM_x86_64_8.0.0/ARMTools/bin/../lib/gcc/arm-atollic-eabi/6.3.1/../../../../arm-atollic-eabi/lib/armv7-ar/thumb/fpu/libc_nano.a(lib_a-fflush.o)
 .text._fflush_r
                0x0000000000000000       0x54 /opt/Atollic_TrueSTUDIO_for_ARM_x86_64_8.0.0/ARMTools/bin/../lib/gcc/arm-atollic-eabi/6.3.1/../../../../arm-atollic-eabi/lib/armv7-ar/thumb/fpu/libc_nano.a(lib_a-fflush.o)
 .text.fflush   0x0000000000000000       0x24 /opt/Atollic_TrueSTUDIO_for_ARM_x86_64_8.0.0/ARMTools/bin/../lib/gcc/arm-atollic-eabi/6.3.1/../../../../arm-atollic-eabi/lib/armv7-ar/thumb/fpu/libc_nano.a(lib_a-fflush.o)
 .debug_frame   0x0000000000000000       0x68 /opt/Atollic_TrueSTUDIO_for_ARM_x86_64_8.0.0/ARMTools/bin/../lib/gcc/arm-atollic-eabi/6.3.1/../../../../arm-atollic-eabi/lib/armv7-ar/thumb/fpu/libc_nano.a(lib_a-fflush.o)
 .ARM.attributes
                0x0000000000000000       0x2d /opt/Atollic_TrueSTUDIO_for_ARM_x86_64_8.0.0/ARMTools/bin/../lib/gcc/arm-atollic-eabi/6.3.1/../../../../arm-atollic-eabi/lib/armv7-ar/thumb/fpu/libc_nano.a(lib_a-fflush.o)
 .text          0x0000000000000000        0x0 /opt/Atollic_TrueSTUDIO_for_ARM_x86_64_8.0.0/ARMTools/bin/../lib/gcc/arm-atollic-eabi/6.3.1/../../../../arm-atollic-eabi/lib/armv7-ar/thumb/fpu/libc_nano.a(lib_a-gdtoa-gethex.o)
 .data          0x0000000000000000        0x0 /opt/Atollic_TrueSTUDIO_for_ARM_x86_64_8.0.0/ARMTools/bin/../lib/gcc/arm-atollic-eabi/6.3.1/../../../../arm-atollic-eabi/lib/armv7-ar/thumb/fpu/libc_nano.a(lib_a-gdtoa-gethex.o)
 .bss           0x0000000000000000        0x0 /opt/Atollic_TrueSTUDIO_for_ARM_x86_64_8.0.0/ARMTools/bin/../lib/gcc/arm-atollic-eabi/6.3.1/../../../../arm-atollic-eabi/lib/armv7-ar/thumb/fpu/libc_nano.a(lib_a-gdtoa-gethex.o)
 .text          0x0000000000000000        0x0 /opt/Atollic_TrueSTUDIO_for_ARM_x86_64_8.0.0/ARMTools/bin/../lib/gcc/arm-atollic-eabi/6.3.1/../../../../arm-atollic-eabi/lib/armv7-ar/thumb/fpu/libc_nano.a(lib_a-gdtoa-hexnan.o)
 .data          0x0000000000000000        0x0 /opt/Atollic_TrueSTUDIO_for_ARM_x86_64_8.0.0/ARMTools/bin/../lib/gcc/arm-atollic-eabi/6.3.1/../../../../arm-atollic-eabi/lib/armv7-ar/thumb/fpu/libc_nano.a(lib_a-gdtoa-hexnan.o)
 .bss           0x0000000000000000        0x0 /opt/Atollic_TrueSTUDIO_for_ARM_x86_64_8.0.0/ARMTools/bin/../lib/gcc/arm-atollic-eabi/6.3.1/../../../../arm-atollic-eabi/lib/armv7-ar/thumb/fpu/libc_nano.a(lib_a-gdtoa-hexnan.o)
 .text          0x0000000000000000        0x0 /opt/Atollic_TrueSTUDIO_for_ARM_x86_64_8.0.0/ARMTools/bin/../lib/gcc/arm-atollic-eabi/6.3.1/../../../../arm-atollic-eabi/lib/armv7-ar/thumb/fpu/libc_nano.a(lib_a-locale.o)
 .data          0x0000000000000000        0x0 /opt/Atollic_TrueSTUDIO_for_ARM_x86_64_8.0.0/ARMTools/bin/../lib/gcc/arm-atollic-eabi/6.3.1/../../../../arm-atollic-eabi/lib/armv7-ar/thumb/fpu/libc_nano.a(lib_a-locale.o)
 .bss           0x0000000000000000        0x0 /opt/Atollic_TrueSTUDIO_for_ARM_x86_64_8.0.0/ARMTools/bin/../lib/gcc/arm-atollic-eabi/6.3.1/../../../../arm-atollic-eabi/lib/armv7-ar/thumb/fpu/libc_nano.a(lib_a-locale.o)
 .text._setlocale_r
                0x0000000000000000       0x38 /opt/Atollic_TrueSTUDIO_for_ARM_x86_64_8.0.0/ARMTools/bin/../lib/gcc/arm-atollic-eabi/6.3.1/../../../../arm-atollic-eabi/lib/armv7-ar/thumb/fpu/libc_nano.a(lib_a-locale.o)
 .text.__locale_mb_cur_max
                0x0000000000000000       0x1c /opt/Atollic_TrueSTUDIO_for_ARM_x86_64_8.0.0/ARMTools/bin/../lib/gcc/arm-atollic-eabi/6.3.1/../../../../arm-atollic-eabi/lib/armv7-ar/thumb/fpu/libc_nano.a(lib_a-locale.o)
 .text.__locale_ctype_ptr
                0x0000000000000000       0x1c /opt/Atollic_TrueSTUDIO_for_ARM_x86_64_8.0.0/ARMTools/bin/../lib/gcc/arm-atollic-eabi/6.3.1/../../../../arm-atollic-eabi/lib/armv7-ar/thumb/fpu/libc_nano.a(lib_a-locale.o)
 .text.setlocale
                0x0000000000000000       0x10 /opt/Atollic_TrueSTUDIO_for_ARM_x86_64_8.0.0/ARMTools/bin/../lib/gcc/arm-atollic-eabi/6.3.1/../../../../arm-atollic-eabi/lib/armv7-ar/thumb/fpu/libc_nano.a(lib_a-locale.o)
 .bss._PathLocale
                0x0000000000000000        0x4 /opt/Atollic_TrueSTUDIO_for_ARM_x86_64_8.0.0/ARMTools/bin/../lib/gcc/arm-atollic-eabi/6.3.1/../../../../arm-atollic-eabi/lib/armv7-ar/thumb/fpu/libc_nano.a(lib_a-locale.o)
 .text          0x0000000000000000        0x0 /opt/Atollic_TrueSTUDIO_for_ARM_x86_64_8.0.0/ARMTools/bin/../lib/gcc/arm-atollic-eabi/6.3.1/../../../../arm-atollic-eabi/lib/armv7-ar/thumb/fpu/libc_nano.a(lib_a-localeconv.o)
 .data          0x0000000000000000        0x0 /opt/Atollic_TrueSTUDIO_for_ARM_x86_64_8.0.0/ARMTools/bin/../lib/gcc/arm-atollic-eabi/6.3.1/../../../../arm-atollic-eabi/lib/armv7-ar/thumb/fpu/libc_nano.a(lib_a-localeconv.o)
 .bss           0x0000000000000000        0x0 /opt/Atollic_TrueSTUDIO_for_ARM_x86_64_8.0.0/ARMTools/bin/../lib/gcc/arm-atollic-eabi/6.3.1/../../../../arm-atollic-eabi/lib/armv7-ar/thumb/fpu/libc_nano.a(lib_a-localeconv.o)
 .text.localeconv
                0x0000000000000000       0x1c /opt/Atollic_TrueSTUDIO_for_ARM_x86_64_8.0.0/ARMTools/bin/../lib/gcc/arm-atollic-eabi/6.3.1/../../../../arm-atollic-eabi/lib/armv7-ar/thumb/fpu/libc_nano.a(lib_a-localeconv.o)
 .text          0x0000000000000000        0x0 /opt/Atollic_TrueSTUDIO_for_ARM_x86_64_8.0.0/ARMTools/bin/../lib/gcc/arm-atollic-eabi/6.3.1/../../../../arm-atollic-eabi/lib/armv7-ar/thumb/fpu/libc_nano.a(lib_a-lseekr.o)
 .data          0x0000000000000000        0x0 /opt/Atollic_TrueSTUDIO_for_ARM_x86_64_8.0.0/ARMTools/bin/../lib/gcc/arm-atollic-eabi/6.3.1/../../../../arm-atollic-eabi/lib/armv7-ar/thumb/fpu/libc_nano.a(lib_a-lseekr.o)
 .bss           0x0000000000000000        0x0 /opt/Atollic_TrueSTUDIO_for_ARM_x86_64_8.0.0/ARMTools/bin/../lib/gcc/arm-atollic-eabi/6.3.1/../../../../arm-atollic-eabi/lib/armv7-ar/thumb/fpu/libc_nano.a(lib_a-lseekr.o)
 .text._lseek_r
                0x0000000000000000       0x24 /opt/Atollic_TrueSTUDIO_for_ARM_x86_64_8.0.0/ARMTools/bin/../lib/gcc/arm-atollic-eabi/6.3.1/../../../../arm-atollic-eabi/lib/armv7-ar/thumb/fpu/libc_nano.a(lib_a-lseekr.o)
 .debug_frame   0x0000000000000000       0x2c /opt/Atollic_TrueSTUDIO_for_ARM_x86_64_8.0.0/ARMTools/bin/../lib/gcc/arm-atollic-eabi/6.3.1/../../../../arm-atollic-eabi/lib/armv7-ar/thumb/fpu/libc_nano.a(lib_a-lseekr.o)
 .ARM.attributes
                0x0000000000000000       0x2d /opt/Atollic_TrueSTUDIO_for_ARM_x86_64_8.0.0/ARMTools/bin/../lib/gcc/arm-atollic-eabi/6.3.1/../../../../arm-atollic-eabi/lib/armv7-ar/thumb/fpu/libc_nano.a(lib_a-lseekr.o)
 .text          0x0000000000000000        0x0 /opt/Atollic_TrueSTUDIO_for_ARM_x86_64_8.0.0/ARMTools/bin/../lib/gcc/arm-atollic-eabi/6.3.1/../../../../arm-atollic-eabi/lib/armv7-ar/thumb/fpu/libc_nano.a(lib_a-makebuf.o)
 .data          0x0000000000000000        0x0 /opt/Atollic_TrueSTUDIO_for_ARM_x86_64_8.0.0/ARMTools/bin/../lib/gcc/arm-atollic-eabi/6.3.1/../../../../arm-atollic-eabi/lib/armv7-ar/thumb/fpu/libc_nano.a(lib_a-makebuf.o)
 .bss           0x0000000000000000        0x0 /opt/Atollic_TrueSTUDIO_for_ARM_x86_64_8.0.0/ARMTools/bin/../lib/gcc/arm-atollic-eabi/6.3.1/../../../../arm-atollic-eabi/lib/armv7-ar/thumb/fpu/libc_nano.a(lib_a-makebuf.o)
 .text.__swhatbuf_r
                0x0000000000000000       0x48 /opt/Atollic_TrueSTUDIO_for_ARM_x86_64_8.0.0/ARMTools/bin/../lib/gcc/arm-atollic-eabi/6.3.1/../../../../arm-atollic-eabi/lib/armv7-ar/thumb/fpu/libc_nano.a(lib_a-makebuf.o)
 .text.__smakebuf_r
                0x0000000000000000       0x80 /opt/Atollic_TrueSTUDIO_for_ARM_x86_64_8.0.0/ARMTools/bin/../lib/gcc/arm-atollic-eabi/6.3.1/../../../../arm-atollic-eabi/lib/armv7-ar/thumb/fpu/libc_nano.a(lib_a-makebuf.o)
 .debug_frame   0x0000000000000000       0x58 /opt/Atollic_TrueSTUDIO_for_ARM_x86_64_8.0.0/ARMTools/bin/../lib/gcc/arm-atollic-eabi/6.3.1/../../../../arm-atollic-eabi/lib/armv7-ar/thumb/fpu/libc_nano.a(lib_a-makebuf.o)
 .ARM.attributes
                0x0000000000000000       0x2d /opt/Atollic_TrueSTUDIO_for_ARM_x86_64_8.0.0/ARMTools/bin/../lib/gcc/arm-atollic-eabi/6.3.1/../../../../arm-atollic-eabi/lib/armv7-ar/thumb/fpu/libc_nano.a(lib_a-makebuf.o)
 .text          0x0000000000000000        0x0 /opt/Atollic_TrueSTUDIO_for_ARM_x86_64_8.0.0/ARMTools/bin/../lib/gcc/arm-atollic-eabi/6.3.1/../../../../arm-atollic-eabi/lib/armv7-ar/thumb/fpu/libc_nano.a(lib_a-mbtowc_r.o)
 .data          0x0000000000000000        0x0 /opt/Atollic_TrueSTUDIO_for_ARM_x86_64_8.0.0/ARMTools/bin/../lib/gcc/arm-atollic-eabi/6.3.1/../../../../arm-atollic-eabi/lib/armv7-ar/thumb/fpu/libc_nano.a(lib_a-mbtowc_r.o)
 .bss           0x0000000000000000        0x0 /opt/Atollic_TrueSTUDIO_for_ARM_x86_64_8.0.0/ARMTools/bin/../lib/gcc/arm-atollic-eabi/6.3.1/../../../../arm-atollic-eabi/lib/armv7-ar/thumb/fpu/libc_nano.a(lib_a-mbtowc_r.o)
 .text._mbtowc_r
                0x0000000000000000       0x24 /opt/Atollic_TrueSTUDIO_for_ARM_x86_64_8.0.0/ARMTools/bin/../lib/gcc/arm-atollic-eabi/6.3.1/../../../../arm-atollic-eabi/lib/armv7-ar/thumb/fpu/libc_nano.a(lib_a-mbtowc_r.o)
 .text          0x0000000000000000        0x0 /opt/Atollic_TrueSTUDIO_for_ARM_x86_64_8.0.0/ARMTools/bin/../lib/gcc/arm-atollic-eabi/6.3.1/../../../../arm-atollic-eabi/lib/armv7-ar/thumb/fpu/libc_nano.a(lib_a-mlock.o)
 .data          0x0000000000000000        0x0 /opt/Atollic_TrueSTUDIO_for_ARM_x86_64_8.0.0/ARMTools/bin/../lib/gcc/arm-atollic-eabi/6.3.1/../../../../arm-atollic-eabi/lib/armv7-ar/thumb/fpu/libc_nano.a(lib_a-mlock.o)
 .bss           0x0000000000000000        0x0 /opt/Atollic_TrueSTUDIO_for_ARM_x86_64_8.0.0/ARMTools/bin/../lib/gcc/arm-atollic-eabi/6.3.1/../../../../arm-atollic-eabi/lib/armv7-ar/thumb/fpu/libc_nano.a(lib_a-mlock.o)
 .text          0x0000000000000000        0x0 /opt/Atollic_TrueSTUDIO_for_ARM_x86_64_8.0.0/ARMTools/bin/../lib/gcc/arm-atollic-eabi/6.3.1/../../../../arm-atollic-eabi/lib/armv7-ar/thumb/fpu/libc_nano.a(lib_a-mprec.o)
 .data          0x0000000000000000        0x0 /opt/Atollic_TrueSTUDIO_for_ARM_x86_64_8.0.0/ARMTools/bin/../lib/gcc/arm-atollic-eabi/6.3.1/../../../../arm-atollic-eabi/lib/armv7-ar/thumb/fpu/libc_nano.a(lib_a-mprec.o)
 .bss           0x0000000000000000        0x0 /opt/Atollic_TrueSTUDIO_for_ARM_x86_64_8.0.0/ARMTools/bin/../lib/gcc/arm-atollic-eabi/6.3.1/../../../../arm-atollic-eabi/lib/armv7-ar/thumb/fpu/libc_nano.a(lib_a-mprec.o)
 .text._mprec_log10
                0x0000000000000000       0x28 /opt/Atollic_TrueSTUDIO_for_ARM_x86_64_8.0.0/ARMTools/bin/../lib/gcc/arm-atollic-eabi/6.3.1/../../../../arm-atollic-eabi/lib/armv7-ar/thumb/fpu/libc_nano.a(lib_a-mprec.o)
 .rodata.__mprec_tinytens
                0x0000000000000000       0x28 /opt/Atollic_TrueSTUDIO_for_ARM_x86_64_8.0.0/ARMTools/bin/../lib/gcc/arm-atollic-eabi/6.3.1/../../../../arm-atollic-eabi/lib/armv7-ar/thumb/fpu/libc_nano.a(lib_a-mprec.o)
 .text          0x0000000000000000        0x0 /opt/Atollic_TrueSTUDIO_for_ARM_x86_64_8.0.0/ARMTools/bin/../lib/gcc/arm-atollic-eabi/6.3.1/../../../../arm-atollic-eabi/lib/armv7-ar/thumb/fpu/libc_nano.a(lib_a-nano-callocr.o)
 .data          0x0000000000000000        0x0 /opt/Atollic_TrueSTUDIO_for_ARM_x86_64_8.0.0/ARMTools/bin/../lib/gcc/arm-atollic-eabi/6.3.1/../../../../arm-atollic-eabi/lib/armv7-ar/thumb/fpu/libc_nano.a(lib_a-nano-callocr.o)
 .bss           0x0000000000000000        0x0 /opt/Atollic_TrueSTUDIO_for_ARM_x86_64_8.0.0/ARMTools/bin/../lib/gcc/arm-atollic-eabi/6.3.1/../../../../arm-atollic-eabi/lib/armv7-ar/thumb/fpu/libc_nano.a(lib_a-nano-callocr.o)
 .text          0x0000000000000000        0x0 /opt/Atollic_TrueSTUDIO_for_ARM_x86_64_8.0.0/ARMTools/bin/../lib/gcc/arm-atollic-eabi/6.3.1/../../../../arm-atollic-eabi/lib/armv7-ar/thumb/fpu/libc_nano.a(lib_a-nano-svfprintf.o)
 .data          0x0000000000000000        0x0 /opt/Atollic_TrueSTUDIO_for_ARM_x86_64_8.0.0/ARMTools/bin/../lib/gcc/arm-atollic-eabi/6.3.1/../../../../arm-atollic-eabi/lib/armv7-ar/thumb/fpu/libc_nano.a(lib_a-nano-svfprintf.o)
 .bss           0x0000000000000000        0x0 /opt/Atollic_TrueSTUDIO_for_ARM_x86_64_8.0.0/ARMTools/bin/../lib/gcc/arm-atollic-eabi/6.3.1/../../../../arm-atollic-eabi/lib/armv7-ar/thumb/fpu/libc_nano.a(lib_a-nano-svfprintf.o)
 .text.__ssprint_r
                0x0000000000000000       0xf4 /opt/Atollic_TrueSTUDIO_for_ARM_x86_64_8.0.0/ARMTools/bin/../lib/gcc/arm-atollic-eabi/6.3.1/../../../../arm-atollic-eabi/lib/armv7-ar/thumb/fpu/libc_nano.a(lib_a-nano-svfprintf.o)
 .text          0x0000000000000000        0x0 /opt/Atollic_TrueSTUDIO_for_ARM_x86_64_8.0.0/ARMTools/bin/../lib/gcc/arm-atollic-eabi/6.3.1/../../../../arm-atollic-eabi/lib/armv7-ar/thumb/fpu/libc_nano.a(lib_a-nano-svfscanf.o)
 .data          0x0000000000000000        0x0 /opt/Atollic_TrueSTUDIO_for_ARM_x86_64_8.0.0/ARMTools/bin/../lib/gcc/arm-atollic-eabi/6.3.1/../../../../arm-atollic-eabi/lib/armv7-ar/thumb/fpu/libc_nano.a(lib_a-nano-svfscanf.o)
 .bss           0x0000000000000000        0x0 /opt/Atollic_TrueSTUDIO_for_ARM_x86_64_8.0.0/ARMTools/bin/../lib/gcc/arm-atollic-eabi/6.3.1/../../../../arm-atollic-eabi/lib/armv7-ar/thumb/fpu/libc_nano.a(lib_a-nano-svfscanf.o)
 .text._sungetc_r
                0x0000000000000000       0x7a /opt/Atollic_TrueSTUDIO_for_ARM_x86_64_8.0.0/ARMTools/bin/../lib/gcc/arm-atollic-eabi/6.3.1/../../../../arm-atollic-eabi/lib/armv7-ar/thumb/fpu/libc_nano.a(lib_a-nano-svfscanf.o)
 .text.__ssrefill_r
                0x0000000000000000       0x3a /opt/Atollic_TrueSTUDIO_for_ARM_x86_64_8.0.0/ARMTools/bin/../lib/gcc/arm-atollic-eabi/6.3.1/../../../../arm-atollic-eabi/lib/armv7-ar/thumb/fpu/libc_nano.a(lib_a-nano-svfscanf.o)
 .text.__ssvfscanf_r
                0x0000000000000000      0x2a8 /opt/Atollic_TrueSTUDIO_for_ARM_x86_64_8.0.0/ARMTools/bin/../lib/gcc/arm-atollic-eabi/6.3.1/../../../../arm-atollic-eabi/lib/armv7-ar/thumb/fpu/libc_nano.a(lib_a-nano-svfscanf.o)
 .rodata.__ssvfscanf_r.str1.1
                0x0000000000000000        0x4 /opt/Atollic_TrueSTUDIO_for_ARM_x86_64_8.0.0/ARMTools/bin/../lib/gcc/arm-atollic-eabi/6.3.1/../../../../arm-atollic-eabi/lib/armv7-ar/thumb/fpu/libc_nano.a(lib_a-nano-svfscanf.o)
 .debug_frame   0x0000000000000000       0x78 /opt/Atollic_TrueSTUDIO_for_ARM_x86_64_8.0.0/ARMTools/bin/../lib/gcc/arm-atollic-eabi/6.3.1/../../../../arm-atollic-eabi/lib/armv7-ar/thumb/fpu/libc_nano.a(lib_a-nano-svfscanf.o)
 .ARM.attributes
                0x0000000000000000       0x2d /opt/Atollic_TrueSTUDIO_for_ARM_x86_64_8.0.0/ARMTools/bin/../lib/gcc/arm-atollic-eabi/6.3.1/../../../../arm-atollic-eabi/lib/armv7-ar/thumb/fpu/libc_nano.a(lib_a-nano-svfscanf.o)
 .text          0x0000000000000000        0x0 /opt/Atollic_TrueSTUDIO_for_ARM_x86_64_8.0.0/ARMTools/bin/../lib/gcc/arm-atollic-eabi/6.3.1/../../../../arm-atollic-eabi/lib/armv7-ar/thumb/fpu/libc_nano.a(lib_a-nano-vfscanf_i.o)
 .data          0x0000000000000000        0x0 /opt/Atollic_TrueSTUDIO_for_ARM_x86_64_8.0.0/ARMTools/bin/../lib/gcc/arm-atollic-eabi/6.3.1/../../../../arm-atollic-eabi/lib/armv7-ar/thumb/fpu/libc_nano.a(lib_a-nano-vfscanf_i.o)
 .bss           0x0000000000000000        0x0 /opt/Atollic_TrueSTUDIO_for_ARM_x86_64_8.0.0/ARMTools/bin/../lib/gcc/arm-atollic-eabi/6.3.1/../../../../arm-atollic-eabi/lib/armv7-ar/thumb/fpu/libc_nano.a(lib_a-nano-vfscanf_i.o)
 .text._scanf_chars
                0x0000000000000000       0xbc /opt/Atollic_TrueSTUDIO_for_ARM_x86_64_8.0.0/ARMTools/bin/../lib/gcc/arm-atollic-eabi/6.3.1/../../../../arm-atollic-eabi/lib/armv7-ar/thumb/fpu/libc_nano.a(lib_a-nano-vfscanf_i.o)
 .text._scanf_i
                0x0000000000000000      0x1e8 /opt/Atollic_TrueSTUDIO_for_ARM_x86_64_8.0.0/ARMTools/bin/../lib/gcc/arm-atollic-eabi/6.3.1/../../../../arm-atollic-eabi/lib/armv7-ar/thumb/fpu/libc_nano.a(lib_a-nano-vfscanf_i.o)
 .rodata        0x0000000000000000        0xc /opt/Atollic_TrueSTUDIO_for_ARM_x86_64_8.0.0/ARMTools/bin/../lib/gcc/arm-atollic-eabi/6.3.1/../../../../arm-atollic-eabi/lib/armv7-ar/thumb/fpu/libc_nano.a(lib_a-nano-vfscanf_i.o)
 .rodata._scanf_i.str1.1
                0x0000000000000000       0x12 /opt/Atollic_TrueSTUDIO_for_ARM_x86_64_8.0.0/ARMTools/bin/../lib/gcc/arm-atollic-eabi/6.3.1/../../../../arm-atollic-eabi/lib/armv7-ar/thumb/fpu/libc_nano.a(lib_a-nano-vfscanf_i.o)
 .rodata.str1.1
                0x0000000000000000        0x9 /opt/Atollic_TrueSTUDIO_for_ARM_x86_64_8.0.0/ARMTools/bin/../lib/gcc/arm-atollic-eabi/6.3.1/../../../../arm-atollic-eabi/lib/armv7-ar/thumb/fpu/libc_nano.a(lib_a-nano-vfscanf_i.o)
 .debug_frame   0x0000000000000000       0x60 /opt/Atollic_TrueSTUDIO_for_ARM_x86_64_8.0.0/ARMTools/bin/../lib/gcc/arm-atollic-eabi/6.3.1/../../../../arm-atollic-eabi/lib/armv7-ar/thumb/fpu/libc_nano.a(lib_a-nano-vfscanf_i.o)
 .ARM.attributes
                0x0000000000000000       0x2d /opt/Atollic_TrueSTUDIO_for_ARM_x86_64_8.0.0/ARMTools/bin/../lib/gcc/arm-atollic-eabi/6.3.1/../../../../arm-atollic-eabi/lib/armv7-ar/thumb/fpu/libc_nano.a(lib_a-nano-vfscanf_i.o)
 .text          0x0000000000000000        0x0 /opt/Atollic_TrueSTUDIO_for_ARM_x86_64_8.0.0/ARMTools/bin/../lib/gcc/arm-atollic-eabi/6.3.1/../../../../arm-atollic-eabi/lib/armv7-ar/thumb/fpu/libc_nano.a(lib_a-readr.o)
 .data          0x0000000000000000        0x0 /opt/Atollic_TrueSTUDIO_for_ARM_x86_64_8.0.0/ARMTools/bin/../lib/gcc/arm-atollic-eabi/6.3.1/../../../../arm-atollic-eabi/lib/armv7-ar/thumb/fpu/libc_nano.a(lib_a-readr.o)
 .bss           0x0000000000000000        0x0 /opt/Atollic_TrueSTUDIO_for_ARM_x86_64_8.0.0/ARMTools/bin/../lib/gcc/arm-atollic-eabi/6.3.1/../../../../arm-atollic-eabi/lib/armv7-ar/thumb/fpu/libc_nano.a(lib_a-readr.o)
 .text._read_r  0x0000000000000000       0x24 /opt/Atollic_TrueSTUDIO_for_ARM_x86_64_8.0.0/ARMTools/bin/../lib/gcc/arm-atollic-eabi/6.3.1/../../../../arm-atollic-eabi/lib/armv7-ar/thumb/fpu/libc_nano.a(lib_a-readr.o)
 .debug_frame   0x0000000000000000       0x2c /opt/Atollic_TrueSTUDIO_for_ARM_x86_64_8.0.0/ARMTools/bin/../lib/gcc/arm-atollic-eabi/6.3.1/../../../../arm-atollic-eabi/lib/armv7-ar/thumb/fpu/libc_nano.a(lib_a-readr.o)
 .ARM.attributes
                0x0000000000000000       0x2d /opt/Atollic_TrueSTUDIO_for_ARM_x86_64_8.0.0/ARMTools/bin/../lib/gcc/arm-atollic-eabi/6.3.1/../../../../arm-atollic-eabi/lib/armv7-ar/thumb/fpu/libc_nano.a(lib_a-readr.o)
 .text          0x0000000000000000        0x0 /opt/Atollic_TrueSTUDIO_for_ARM_x86_64_8.0.0/ARMTools/bin/../lib/gcc/arm-atollic-eabi/6.3.1/../../../../arm-atollic-eabi/lib/armv7-ar/thumb/fpu/libc_nano.a(lib_a-sccl.o)
 .data          0x0000000000000000        0x0 /opt/Atollic_TrueSTUDIO_for_ARM_x86_64_8.0.0/ARMTools/bin/../lib/gcc/arm-atollic-eabi/6.3.1/../../../../arm-atollic-eabi/lib/armv7-ar/thumb/fpu/libc_nano.a(lib_a-sccl.o)
 .bss           0x0000000000000000        0x0 /opt/Atollic_TrueSTUDIO_for_ARM_x86_64_8.0.0/ARMTools/bin/../lib/gcc/arm-atollic-eabi/6.3.1/../../../../arm-atollic-eabi/lib/armv7-ar/thumb/fpu/libc_nano.a(lib_a-sccl.o)
 .text.__sccl   0x0000000000000000       0x5e /opt/Atollic_TrueSTUDIO_for_ARM_x86_64_8.0.0/ARMTools/bin/../lib/gcc/arm-atollic-eabi/6.3.1/../../../../arm-atollic-eabi/lib/armv7-ar/thumb/fpu/libc_nano.a(lib_a-sccl.o)
 .debug_frame   0x0000000000000000       0x2c /opt/Atollic_TrueSTUDIO_for_ARM_x86_64_8.0.0/ARMTools/bin/../lib/gcc/arm-atollic-eabi/6.3.1/../../../../arm-atollic-eabi/lib/armv7-ar/thumb/fpu/libc_nano.a(lib_a-sccl.o)
 .ARM.attributes
                0x0000000000000000       0x2d /opt/Atollic_TrueSTUDIO_for_ARM_x86_64_8.0.0/ARMTools/bin/../lib/gcc/arm-atollic-eabi/6.3.1/../../../../arm-atollic-eabi/lib/armv7-ar/thumb/fpu/libc_nano.a(lib_a-sccl.o)
 .text          0x0000000000000000        0x0 /opt/Atollic_TrueSTUDIO_for_ARM_x86_64_8.0.0/ARMTools/bin/../lib/gcc/arm-atollic-eabi/6.3.1/../../../../arm-atollic-eabi/lib/armv7-ar/thumb/fpu/libc_nano.a(lib_a-strtoul.o)
 .data          0x0000000000000000        0x0 /opt/Atollic_TrueSTUDIO_for_ARM_x86_64_8.0.0/ARMTools/bin/../lib/gcc/arm-atollic-eabi/6.3.1/../../../../arm-atollic-eabi/lib/armv7-ar/thumb/fpu/libc_nano.a(lib_a-strtoul.o)
 .bss           0x0000000000000000        0x0 /opt/Atollic_TrueSTUDIO_for_ARM_x86_64_8.0.0/ARMTools/bin/../lib/gcc/arm-atollic-eabi/6.3.1/../../../../arm-atollic-eabi/lib/armv7-ar/thumb/fpu/libc_nano.a(lib_a-strtoul.o)
 .text._strtoul_l.isra.0
                0x0000000000000000      0x104 /opt/Atollic_TrueSTUDIO_for_ARM_x86_64_8.0.0/ARMTools/bin/../lib/gcc/arm-atollic-eabi/6.3.1/../../../../arm-atollic-eabi/lib/armv7-ar/thumb/fpu/libc_nano.a(lib_a-strtoul.o)
 .text._strtoul_r
                0x0000000000000000       0x24 /opt/Atollic_TrueSTUDIO_for_ARM_x86_64_8.0.0/ARMTools/bin/../lib/gcc/arm-atollic-eabi/6.3.1/../../../../arm-atollic-eabi/lib/armv7-ar/thumb/fpu/libc_nano.a(lib_a-strtoul.o)
 .text.strtoul_l
                0x0000000000000000       0x1c /opt/Atollic_TrueSTUDIO_for_ARM_x86_64_8.0.0/ARMTools/bin/../lib/gcc/arm-atollic-eabi/6.3.1/../../../../arm-atollic-eabi/lib/armv7-ar/thumb/fpu/libc_nano.a(lib_a-strtoul.o)
 .text.strtoul  0x0000000000000000       0x2c /opt/Atollic_TrueSTUDIO_for_ARM_x86_64_8.0.0/ARMTools/bin/../lib/gcc/arm-atollic-eabi/6.3.1/../../../../arm-atollic-eabi/lib/armv7-ar/thumb/fpu/libc_nano.a(lib_a-strtoul.o)
 .debug_frame   0x0000000000000000       0x88 /opt/Atollic_TrueSTUDIO_for_ARM_x86_64_8.0.0/ARMTools/bin/../lib/gcc/arm-atollic-eabi/6.3.1/../../../../arm-atollic-eabi/lib/armv7-ar/thumb/fpu/libc_nano.a(lib_a-strtoul.o)
 .ARM.attributes
                0x0000000000000000       0x2d /opt/Atollic_TrueSTUDIO_for_ARM_x86_64_8.0.0/ARMTools/bin/../lib/gcc/arm-atollic-eabi/6.3.1/../../../../arm-atollic-eabi/lib/armv7-ar/thumb/fpu/libc_nano.a(lib_a-strtoul.o)
 .text          0x0000000000000000        0x0 /opt/Atollic_TrueSTUDIO_for_ARM_x86_64_8.0.0/ARMTools/bin/../lib/gcc/arm-atollic-eabi/6.3.1/../../../../arm-atollic-eabi/lib/armv7-ar/thumb/fpu/libc_nano.a(lib_a-ungetc.o)
 .data          0x0000000000000000        0x0 /opt/Atollic_TrueSTUDIO_for_ARM_x86_64_8.0.0/ARMTools/bin/../lib/gcc/arm-atollic-eabi/6.3.1/../../../../arm-atollic-eabi/lib/armv7-ar/thumb/fpu/libc_nano.a(lib_a-ungetc.o)
 .bss           0x0000000000000000        0x0 /opt/Atollic_TrueSTUDIO_for_ARM_x86_64_8.0.0/ARMTools/bin/../lib/gcc/arm-atollic-eabi/6.3.1/../../../../arm-atollic-eabi/lib/armv7-ar/thumb/fpu/libc_nano.a(lib_a-ungetc.o)
 .text.__submore
                0x0000000000000000       0x70 /opt/Atollic_TrueSTUDIO_for_ARM_x86_64_8.0.0/ARMTools/bin/../lib/gcc/arm-atollic-eabi/6.3.1/../../../../arm-atollic-eabi/lib/armv7-ar/thumb/fpu/libc_nano.a(lib_a-ungetc.o)
 .text._ungetc_r
                0x0000000000000000       0xe4 /opt/Atollic_TrueSTUDIO_for_ARM_x86_64_8.0.0/ARMTools/bin/../lib/gcc/arm-atollic-eabi/6.3.1/../../../../arm-atollic-eabi/lib/armv7-ar/thumb/fpu/libc_nano.a(lib_a-ungetc.o)
 .text.ungetc   0x0000000000000000       0x10 /opt/Atollic_TrueSTUDIO_for_ARM_x86_64_8.0.0/ARMTools/bin/../lib/gcc/arm-atollic-eabi/6.3.1/../../../../arm-atollic-eabi/lib/armv7-ar/thumb/fpu/libc_nano.a(lib_a-ungetc.o)
 .debug_frame   0x0000000000000000       0x5c /opt/Atollic_TrueSTUDIO_for_ARM_x86_64_8.0.0/ARMTools/bin/../lib/gcc/arm-atollic-eabi/6.3.1/../../../../arm-atollic-eabi/lib/armv7-ar/thumb/fpu/libc_nano.a(lib_a-ungetc.o)
 .ARM.attributes
                0x0000000000000000       0x2d /opt/Atollic_TrueSTUDIO_for_ARM_x86_64_8.0.0/ARMTools/bin/../lib/gcc/arm-atollic-eabi/6.3.1/../../../../arm-atollic-eabi/lib/armv7-ar/thumb/fpu/libc_nano.a(lib_a-ungetc.o)
 .text          0x0000000000000000        0x0 /opt/Atollic_TrueSTUDIO_for_ARM_x86_64_8.0.0/ARMTools/bin/../lib/gcc/arm-atollic-eabi/6.3.1/../../../../arm-atollic-eabi/lib/armv7-ar/thumb/fpu/libc_nano.a(lib_a-wctomb_r.o)
 .data          0x0000000000000000        0x0 /opt/Atollic_TrueSTUDIO_for_ARM_x86_64_8.0.0/ARMTools/bin/../lib/gcc/arm-atollic-eabi/6.3.1/../../../../arm-atollic-eabi/lib/armv7-ar/thumb/fpu/libc_nano.a(lib_a-wctomb_r.o)
 .bss           0x0000000000000000        0x0 /opt/Atollic_TrueSTUDIO_for_ARM_x86_64_8.0.0/ARMTools/bin/../lib/gcc/arm-atollic-eabi/6.3.1/../../../../arm-atollic-eabi/lib/armv7-ar/thumb/fpu/libc_nano.a(lib_a-wctomb_r.o)
 .text._wctomb_r
                0x0000000000000000       0x24 /opt/Atollic_TrueSTUDIO_for_ARM_x86_64_8.0.0/ARMTools/bin/../lib/gcc/arm-atollic-eabi/6.3.1/../../../../arm-atollic-eabi/lib/armv7-ar/thumb/fpu/libc_nano.a(lib_a-wctomb_r.o)
 .text          0x0000000000000000        0x0 /opt/Atollic_TrueSTUDIO_for_ARM_x86_64_8.0.0/ARMTools/bin/../lib/gcc/arm-atollic-eabi/6.3.1/../../../../arm-atollic-eabi/lib/armv7-ar/thumb/fpu/libc_nano.a(lib_a-ctype_.o)
 .data          0x0000000000000000        0x0 /opt/Atollic_TrueSTUDIO_for_ARM_x86_64_8.0.0/ARMTools/bin/../lib/gcc/arm-atollic-eabi/6.3.1/../../../../arm-atollic-eabi/lib/armv7-ar/thumb/fpu/libc_nano.a(lib_a-ctype_.o)
 .bss           0x0000000000000000        0x0 /opt/Atollic_TrueSTUDIO_for_ARM_x86_64_8.0.0/ARMTools/bin/../lib/gcc/arm-atollic-eabi/6.3.1/../../../../arm-atollic-eabi/lib/armv7-ar/thumb/fpu/libc_nano.a(lib_a-ctype_.o)
 .text          0x0000000000000000        0x0 /opt/Atollic_TrueSTUDIO_for_ARM_x86_64_8.0.0/ARMTools/bin/../lib/gcc/arm-atollic-eabi/6.3.1/../../../../arm-atollic-eabi/lib/armv7-ar/thumb/fpu/libc_nano.a(lib_a-fstatr.o)
 .data          0x0000000000000000        0x0 /opt/Atollic_TrueSTUDIO_for_ARM_x86_64_8.0.0/ARMTools/bin/../lib/gcc/arm-atollic-eabi/6.3.1/../../../../arm-atollic-eabi/lib/armv7-ar/thumb/fpu/libc_nano.a(lib_a-fstatr.o)
 .bss           0x0000000000000000        0x0 /opt/Atollic_TrueSTUDIO_for_ARM_x86_64_8.0.0/ARMTools/bin/../lib/gcc/arm-atollic-eabi/6.3.1/../../../../arm-atollic-eabi/lib/armv7-ar/thumb/fpu/libc_nano.a(lib_a-fstatr.o)
 .text._fstat_r
                0x0000000000000000       0x24 /opt/Atollic_TrueSTUDIO_for_ARM_x86_64_8.0.0/ARMTools/bin/../lib/gcc/arm-atollic-eabi/6.3.1/../../../../arm-atollic-eabi/lib/armv7-ar/thumb/fpu/libc_nano.a(lib_a-fstatr.o)
 .debug_frame   0x0000000000000000       0x2c /opt/Atollic_TrueSTUDIO_for_ARM_x86_64_8.0.0/ARMTools/bin/../lib/gcc/arm-atollic-eabi/6.3.1/../../../../arm-atollic-eabi/lib/armv7-ar/thumb/fpu/libc_nano.a(lib_a-fstatr.o)
 .ARM.attributes
                0x0000000000000000       0x2d /opt/Atollic_TrueSTUDIO_for_ARM_x86_64_8.0.0/ARMTools/bin/../lib/gcc/arm-atollic-eabi/6.3.1/../../../../arm-atollic-eabi/lib/armv7-ar/thumb/fpu/libc_nano.a(lib_a-fstatr.o)
 .text          0x0000000000000000        0x0 /opt/Atollic_TrueSTUDIO_for_ARM_x86_64_8.0.0/ARMTools/bin/../lib/gcc/arm-atollic-eabi/6.3.1/../../../../arm-atollic-eabi/lib/armv7-ar/thumb/fpu/libc_nano.a(lib_a-isattyr.o)
 .data          0x0000000000000000        0x0 /opt/Atollic_TrueSTUDIO_for_ARM_x86_64_8.0.0/ARMTools/bin/../lib/gcc/arm-atollic-eabi/6.3.1/../../../../arm-atollic-eabi/lib/armv7-ar/thumb/fpu/libc_nano.a(lib_a-isattyr.o)
 .bss           0x0000000000000000        0x0 /opt/Atollic_TrueSTUDIO_for_ARM_x86_64_8.0.0/ARMTools/bin/../lib/gcc/arm-atollic-eabi/6.3.1/../../../../arm-atollic-eabi/lib/armv7-ar/thumb/fpu/libc_nano.a(lib_a-isattyr.o)
 .text._isatty_r
                0x0000000000000000       0x20 /opt/Atollic_TrueSTUDIO_for_ARM_x86_64_8.0.0/ARMTools/bin/../lib/gcc/arm-atollic-eabi/6.3.1/../../../../arm-atollic-eabi/lib/armv7-ar/thumb/fpu/libc_nano.a(lib_a-isattyr.o)
 .debug_frame   0x0000000000000000       0x2c /opt/Atollic_TrueSTUDIO_for_ARM_x86_64_8.0.0/ARMTools/bin/../lib/gcc/arm-atollic-eabi/6.3.1/../../../../arm-atollic-eabi/lib/armv7-ar/thumb/fpu/libc_nano.a(lib_a-isattyr.o)
 .ARM.attributes
                0x0000000000000000       0x2d /opt/Atollic_TrueSTUDIO_for_ARM_x86_64_8.0.0/ARMTools/bin/../lib/gcc/arm-atollic-eabi/6.3.1/../../../../arm-atollic-eabi/lib/armv7-ar/thumb/fpu/libc_nano.a(lib_a-isattyr.o)
 .text          0x0000000000000000        0x0 /opt/Atollic_TrueSTUDIO_for_ARM_x86_64_8.0.0/ARMTools/bin/../lib/gcc/arm-atollic-eabi/6.3.1/../../../../arm-atollic-eabi/lib/armv7-ar/thumb/fpu/libc_nano.a(lib_a-memmove.o)
 .data          0x0000000000000000        0x0 /opt/Atollic_TrueSTUDIO_for_ARM_x86_64_8.0.0/ARMTools/bin/../lib/gcc/arm-atollic-eabi/6.3.1/../../../../arm-atollic-eabi/lib/armv7-ar/thumb/fpu/libc_nano.a(lib_a-memmove.o)
 .bss           0x0000000000000000        0x0 /opt/Atollic_TrueSTUDIO_for_ARM_x86_64_8.0.0/ARMTools/bin/../lib/gcc/arm-atollic-eabi/6.3.1/../../../../arm-atollic-eabi/lib/armv7-ar/thumb/fpu/libc_nano.a(lib_a-memmove.o)
 .text          0x0000000000000000        0x0 /opt/Atollic_TrueSTUDIO_for_ARM_x86_64_8.0.0/ARMTools/bin/../lib/gcc/arm-atollic-eabi/6.3.1/../../../../arm-atollic-eabi/lib/armv7-ar/thumb/fpu/libc_nano.a(lib_a-nano-reallocr.o)
 .data          0x0000000000000000        0x0 /opt/Atollic_TrueSTUDIO_for_ARM_x86_64_8.0.0/ARMTools/bin/../lib/gcc/arm-atollic-eabi/6.3.1/../../../../arm-atollic-eabi/lib/armv7-ar/thumb/fpu/libc_nano.a(lib_a-nano-reallocr.o)
 .bss           0x0000000000000000        0x0 /opt/Atollic_TrueSTUDIO_for_ARM_x86_64_8.0.0/ARMTools/bin/../lib/gcc/arm-atollic-eabi/6.3.1/../../../../arm-atollic-eabi/lib/armv7-ar/thumb/fpu/libc_nano.a(lib_a-nano-reallocr.o)
 .text          0x0000000000000000        0x0 /opt/Atollic_TrueSTUDIO_for_ARM_x86_64_8.0.0/ARMTools/bin/../lib/gcc/arm-atollic-eabi/6.3.1/../../../../arm-atollic-eabi/lib/armv7-ar/thumb/fpu/libc_nano.a(lib_a-nano-msizer.o)
 .data          0x0000000000000000        0x0 /opt/Atollic_TrueSTUDIO_for_ARM_x86_64_8.0.0/ARMTools/bin/../lib/gcc/arm-atollic-eabi/6.3.1/../../../../arm-atollic-eabi/lib/armv7-ar/thumb/fpu/libc_nano.a(lib_a-nano-msizer.o)
 .bss           0x0000000000000000        0x0 /opt/Atollic_TrueSTUDIO_for_ARM_x86_64_8.0.0/ARMTools/bin/../lib/gcc/arm-atollic-eabi/6.3.1/../../../../arm-atollic-eabi/lib/armv7-ar/thumb/fpu/libc_nano.a(lib_a-nano-msizer.o)
 .text          0x0000000000000000        0x0 /opt/Atollic_TrueSTUDIO_for_ARM_x86_64_8.0.0/ARMTools/bin/../lib/gcc/arm-atollic-eabi/6.3.1/../../../../arm-atollic-eabi/lib/armv7-ar/thumb/fpu/libnosys.a(getpid.o)
 .data          0x0000000000000000        0x0 /opt/Atollic_TrueSTUDIO_for_ARM_x86_64_8.0.0/ARMTools/bin/../lib/gcc/arm-atollic-eabi/6.3.1/../../../../arm-atollic-eabi/lib/armv7-ar/thumb/fpu/libnosys.a(getpid.o)
 .bss           0x0000000000000000        0x0 /opt/Atollic_TrueSTUDIO_for_ARM_x86_64_8.0.0/ARMTools/bin/../lib/gcc/arm-atollic-eabi/6.3.1/../../../../arm-atollic-eabi/lib/armv7-ar/thumb/fpu/libnosys.a(getpid.o)
 .stab          0x0000000000000000       0x24 /opt/Atollic_TrueSTUDIO_for_ARM_x86_64_8.0.0/ARMTools/bin/../lib/gcc/arm-atollic-eabi/6.3.1/../../../../arm-atollic-eabi/lib/armv7-ar/thumb/fpu/libnosys.a(getpid.o)
 .text._getpid  0x0000000000000000       0x10 /opt/Atollic_TrueSTUDIO_for_ARM_x86_64_8.0.0/ARMTools/bin/../lib/gcc/arm-atollic-eabi/6.3.1/../../../../arm-atollic-eabi/lib/armv7-ar/thumb/fpu/libnosys.a(getpid.o)
 .debug_frame   0x0000000000000000       0x20 /opt/Atollic_TrueSTUDIO_for_ARM_x86_64_8.0.0/ARMTools/bin/../lib/gcc/arm-atollic-eabi/6.3.1/../../../../arm-atollic-eabi/lib/armv7-ar/thumb/fpu/libnosys.a(getpid.o)
 .ARM.attributes
                0x0000000000000000       0x2d /opt/Atollic_TrueSTUDIO_for_ARM_x86_64_8.0.0/ARMTools/bin/../lib/gcc/arm-atollic-eabi/6.3.1/../../../../arm-atollic-eabi/lib/armv7-ar/thumb/fpu/libnosys.a(getpid.o)
 .text          0x0000000000000000        0x0 /opt/Atollic_TrueSTUDIO_for_ARM_x86_64_8.0.0/ARMTools/bin/../lib/gcc/arm-atollic-eabi/6.3.1/../../../../arm-atollic-eabi/lib/armv7-ar/thumb/fpu/libnosys.a(kill.o)
 .data          0x0000000000000000        0x0 /opt/Atollic_TrueSTUDIO_for_ARM_x86_64_8.0.0/ARMTools/bin/../lib/gcc/arm-atollic-eabi/6.3.1/../../../../arm-atollic-eabi/lib/armv7-ar/thumb/fpu/libnosys.a(kill.o)
 .bss           0x0000000000000000        0x0 /opt/Atollic_TrueSTUDIO_for_ARM_x86_64_8.0.0/ARMTools/bin/../lib/gcc/arm-atollic-eabi/6.3.1/../../../../arm-atollic-eabi/lib/armv7-ar/thumb/fpu/libnosys.a(kill.o)
 .stab          0x0000000000000000       0x18 /opt/Atollic_TrueSTUDIO_for_ARM_x86_64_8.0.0/ARMTools/bin/../lib/gcc/arm-atollic-eabi/6.3.1/../../../../arm-atollic-eabi/lib/armv7-ar/thumb/fpu/libnosys.a(kill.o)
                                         0x24 (size before relaxing)
 .text._kill    0x0000000000000000       0x10 /opt/Atollic_TrueSTUDIO_for_ARM_x86_64_8.0.0/ARMTools/bin/../lib/gcc/arm-atollic-eabi/6.3.1/../../../../arm-atollic-eabi/lib/armv7-ar/thumb/fpu/libnosys.a(kill.o)
 .debug_frame   0x0000000000000000       0x20 /opt/Atollic_TrueSTUDIO_for_ARM_x86_64_8.0.0/ARMTools/bin/../lib/gcc/arm-atollic-eabi/6.3.1/../../../../arm-atollic-eabi/lib/armv7-ar/thumb/fpu/libnosys.a(kill.o)
 .ARM.attributes
                0x0000000000000000       0x2d /opt/Atollic_TrueSTUDIO_for_ARM_x86_64_8.0.0/ARMTools/bin/../lib/gcc/arm-atollic-eabi/6.3.1/../../../../arm-atollic-eabi/lib/armv7-ar/thumb/fpu/libnosys.a(kill.o)

Memory Configuration

Name             Origin             Length             Attributes
ROM              0x0000000000000000 0x0000000002000000 xr
BOOT_LOADER      0x0000000018000000 0x0000000000004000 xr
SFLASH           0x0000000018004000 0x0000000007ffc000 xr
L_TTB            0x0000000020000000 0x0000000000004000 rw
RAM              0x0000000020020000 0x0000000000700000 xrw
RAM_NC           0x0000000020900000 0x0000000000100000 xrw
*default*        0x0000000000000000 0xffffffffffffffff

Linker script and memory map

LOAD start.o
LOAD log_output.o
LOAD vasyslog.o
LOAD t_perror.o
LOAD strerror.o
LOAD blinky.o
LOAD sf_boot.o
LOAD tTask_tecsgen.o
LOAD tSemaphore_tecsgen.o
LOAD tInterruptRequest_tecsgen.o
LOAD tISR_tecsgen.o
LOAD tInitializeRoutine_tecsgen.o
LOAD tTerminateRoutine_tecsgen.o
LOAD tSerialPortMain_tecsgen.o
LOAD tSerialAdapter_tecsgen.o
LOAD tSysLog_tecsgen.o
LOAD tSysLogAdapter_tecsgen.o
LOAD tLogTaskMain_tecsgen.o
LOAD tBannerMain_tecsgen.o
LOAD tPutLogGRPeach_tecsgen.o
LOAD tSCIF_tecsgen.o
LOAD tSIOPortGRPeachMain_tecsgen.o
LOAD tTask.o
LOAD tISR.o
LOAD tInitializeRoutine.o
LOAD tTerminateRoutine.o
LOAD tSerialPortMain.o
LOAD tSerialAdapter.o
LOAD tSysLog.o
LOAD tSysLogAdapter.o
LOAD tLogTaskMain.o
LOAD tBannerMain.o
LOAD tPutLogGRPeach.o
LOAD tSCIF.o
LOAD init_tecs.o
LOAD kernel_cfg.o
LOAD libmbed.a
LOAD ./libkernel.a
LOAD /opt/Atollic_TrueSTUDIO_for_ARM_x86_64_8.0.0/ARMTools/bin/../lib/gcc/arm-atollic-eabi/6.3.1/armv7-ar/thumb/fpu/libgcc.a
LOAD /opt/Atollic_TrueSTUDIO_for_ARM_x86_64_8.0.0/ARMTools/bin/../lib/gcc/arm-atollic-eabi/6.3.1/../../../../arm-atollic-eabi/lib/armv7-ar/thumb/fpu/libstdc++_nano.a
LOAD /opt/Atollic_TrueSTUDIO_for_ARM_x86_64_8.0.0/ARMTools/bin/../lib/gcc/arm-atollic-eabi/6.3.1/../../../../arm-atollic-eabi/lib/armv7-ar/thumb/fpu/libsupc++_nano.a
LOAD /opt/Atollic_TrueSTUDIO_for_ARM_x86_64_8.0.0/ARMTools/bin/../lib/gcc/arm-atollic-eabi/6.3.1/../../../../arm-atollic-eabi/lib/armv7-ar/thumb/fpu/libm.a
LOAD /opt/Atollic_TrueSTUDIO_for_ARM_x86_64_8.0.0/ARMTools/bin/../lib/gcc/arm-atollic-eabi/6.3.1/../../../../arm-atollic-eabi/lib/armv7-ar/thumb/fpu/libc_nano.a
LOAD /opt/Atollic_TrueSTUDIO_for_ARM_x86_64_8.0.0/ARMTools/bin/../lib/gcc/arm-atollic-eabi/6.3.1/../../../../arm-atollic-eabi/lib/armv7-ar/thumb/fpu/libc_nano.a
LOAD /opt/Atollic_TrueSTUDIO_for_ARM_x86_64_8.0.0/ARMTools/bin/../lib/gcc/arm-atollic-eabi/6.3.1/armv7-ar/thumb/fpu/libgcc.a
LOAD /opt/Atollic_TrueSTUDIO_for_ARM_x86_64_8.0.0/ARMTools/bin/../lib/gcc/arm-atollic-eabi/6.3.1/../../../../arm-atollic-eabi/lib/armv7-ar/thumb/fpu/libnosys.a
                0x0000000000000000                PROVIDE (software_init_hook, 0x0)
                [!provide]                        PROVIDE (hardware_init_hook, 0x0)
                0x0000000000000000                PROVIDE (software_term_hook, 0x0)
                0x0000000018018918                PROVIDE (IRQTable, _kernel_inh_table)
                0x0000000020028700                PROVIDE (IRQNestLevel, _kernel_excpt_nest_count)

.boot           0x0000000018000000     0x3100
 *(.boot_loader)
 .boot_loader   0x0000000018000000     0x3100 sf_boot.o
                0x0000000018000000                boot_loader

.text           0x0000000018004000    0x160f6
                0x0000000018004000                Image$$VECTORS$$Base = .
 *(RESET)
                0x0000000018004000                Image$$VECTORS$$Limit = .
                0x0000000018004400                . = (. + 0x400)
 *fill*         0x0000000018004000      0x400 
 *(.isr_vector)
 .isr_vector    0x0000000018004400       0x40 libmbed.a(startup_RZ1AH.o)
                0x0000000018004400                __isr_vector
 *(SVC_TABLE)
 *(.text*)
 .text          0x0000000018004440       0x44 start.o
                0x0000000018004440                start
 .text          0x0000000018004484      0x608 log_output.o
                0x000000001800460c                syslog_printf
                0x00000000180049c0                syslog_print
                0x0000000018004a40                syslog_lostmsg
 .text.gpio_write
                0x0000000018004a8c       0x50 blinky.o
 .text.gpio_read
                0x0000000018004adc       0x40 blinky.o
 .text._ZN4mbed10DigitalOutC2E7PinName
                0x0000000018004b1c       0x5c blinky.o
                0x0000000018004b1c                mbed::DigitalOut::DigitalOut(PinName)
                0x0000000018004b1c                mbed::DigitalOut::DigitalOut(PinName)
 .text._ZN4mbed10DigitalOut5writeEi
                0x0000000018004b78       0x2c blinky.o
                0x0000000018004b78                mbed::DigitalOut::write(int)
 .text._ZN4mbed10DigitalOut4readEv
                0x0000000018004ba4       0x28 blinky.o
                0x0000000018004ba4                mbed::DigitalOut::read()
 .text._ZN4mbed10DigitalOutaSEi
                0x0000000018004bcc       0x2c blinky.o
                0x0000000018004bcc                mbed::DigitalOut::operator=(int)
 .text._ZN4mbed10DigitalOutcviEv
                0x0000000018004bf8       0x24 blinky.o
                0x0000000018004bf8                mbed::DigitalOut::operator int()
 .text._ZN4mbed6TickerC2Ev
                0x0000000018004c1c       0x4c blinky.o
                0x0000000018004c1c                mbed::Ticker::Ticker()
                0x0000000018004c1c                mbed::Ticker::Ticker()
 .text._ZN4mbed6Ticker9attach_usEPFvvEm
                0x0000000018004c68       0x40 blinky.o
                0x0000000018004c68                mbed::Ticker::attach_us(void (*)(), unsigned long)
 .text._ZN4mbed6TickerD2Ev
                0x0000000018004ca8       0x40 blinky.o
                0x0000000018004ca8                mbed::Ticker::~Ticker()
                0x0000000018004ca8                mbed::Ticker::~Ticker()
 .text._ZN4mbed6TickerD0Ev
                0x0000000018004ce8       0x2c blinky.o
                0x0000000018004ce8                mbed::Ticker::~Ticker()
 .text._ZN7SoftPWMaSEf
                0x0000000018004d14       0x74 blinky.o
                0x0000000018004d14                SoftPWM::operator=(float)
 .text._Z4flipv
                0x0000000018004d88      0x178 blinky.o
                0x0000000018004d88                flip()
 .text.blinky_main_task
                0x0000000018004f00      0x354 blinky.o
                0x0000000018004f00                blinky_main_task
 .text._ZN4mbed19FunctionPointerArg1IvvEC2EPFvvE
                0x0000000018005254       0x2c blinky.o
                0x0000000018005254                mbed::FunctionPointerArg1<void, void>::FunctionPointerArg1(void (*)())
                0x0000000018005254                mbed::FunctionPointerArg1<void, void>::FunctionPointerArg1(void (*)())
 .text._ZN4mbed19FunctionPointerArg1IvvE6attachEPFvvE
                0x0000000018005280       0x30 blinky.o
                0x0000000018005280                mbed::FunctionPointerArg1<void, void>::attach(void (*)())
 .text._ZN4mbed7TimeoutD2Ev
                0x00000000180052b0       0x38 blinky.o
                0x00000000180052b0                mbed::Timeout::~Timeout()
                0x00000000180052b0                mbed::Timeout::~Timeout()
 .text._ZN4mbed7TimeoutD0Ev
                0x00000000180052e8       0x2c blinky.o
                0x00000000180052e8                mbed::Timeout::~Timeout()
 .text._ZN7SoftPWMD2Ev
                0x0000000018005314       0x38 blinky.o
                0x0000000018005314                SoftPWM::~SoftPWM()
                0x0000000018005314                SoftPWM::~SoftPWM()
 .text._Z41__static_initialization_and_destruction_0ii
                0x000000001800534c      0x100 blinky.o
 .text._GLOBAL__sub_I__Z4flipv
                0x000000001800544c       0x14 blinky.o
 .text          0x0000000018005460       0x58 tTask_tecsgen.o
                0x0000000018005460                tTask_CB_initialize
 .text          0x00000000180054b8       0x58 tSemaphore_tecsgen.o
                0x00000000180054b8                tSemaphore_CB_initialize
 .text          0x0000000018005510       0x58 tInterruptRequest_tecsgen.o
                0x0000000018005510                tInterruptRequest_CB_initialize
 .text          0x0000000018005568       0x58 tISR_tecsgen.o
                0x0000000018005568                tISR_CB_initialize
 .text          0x00000000180055c0       0x40 tInitializeRoutine_tecsgen.o
                0x00000000180055c0                tInitializeRoutine_CB_initialize
 .text          0x0000000018005600       0x40 tTerminateRoutine_tecsgen.o
                0x0000000018005600                tTerminateRoutine_CB_initialize
 .text          0x0000000018005640      0x204 tSerialPortMain_tecsgen.o
                0x0000000018005640                tSerialPortMain_eSerialPort_open_skel
                0x0000000018005678                tSerialPortMain_eSerialPort_close_skel
                0x00000000180056b0                tSerialPortMain_eSerialPort_read_skel
                0x00000000180056f8                tSerialPortMain_eSerialPort_write_skel
                0x0000000018005740                tSerialPortMain_eSerialPort_control_skel
                0x0000000018005780                tSerialPortMain_eSerialPort_refer_skel
                0x00000000180057c0                tSerialPortMain_CB_initialize
 .text          0x0000000018005844       0x18 tSerialAdapter_tecsgen.o
                0x0000000018005844                tSerialAdapter_CB_initialize
 .text          0x000000001800585c       0x8c tSysLog_tecsgen.o
                0x000000001800585c                tSysLog_CB_initialize
 .text          0x00000000180058e8       0x18 tSysLogAdapter_tecsgen.o
                0x00000000180058e8                tSysLogAdapter_CB_initialize
 .text          0x0000000018005900       0x18 tLogTaskMain_tecsgen.o
                0x0000000018005900                tLogTaskMain_CB_initialize
 .text          0x0000000018005918       0x18 tBannerMain_tecsgen.o
                0x0000000018005918                tBannerMain_CB_initialize
 .text          0x0000000018005930       0x18 tPutLogGRPeach_tecsgen.o
                0x0000000018005930                tPutLogGRPeach_CB_initialize
 .text          0x0000000018005948       0xe8 tSCIF_tecsgen.o
                0x0000000018005948                tSCIF_eiRxISR_main_skel
                0x000000001800597c                tSCIF_eiTxISR_main_skel
                0x00000000180059b0                tSCIF_CB_initialize
 .text          0x0000000018005a30       0x40 tSIOPortGRPeachMain_tecsgen.o
                0x0000000018005a30                tSIOPortGRPeachMain_CB_initialize
 .text          0x0000000018005a70       0x28 tTask.o
                0x0000000018005a70                tTask_start
 .text          0x0000000018005a98       0x44 tISR.o
                0x0000000018005a98                tISR_start
 .text          0x0000000018005adc       0x28 tInitializeRoutine.o
                0x0000000018005adc                tInitializeRoutine_start
 .text          0x0000000018005b04       0x28 tTerminateRoutine.o
                0x0000000018005b04                tTerminateRoutine_start
 .text          0x0000000018005b2c     0x1350 tSerialPortMain.o
                0x0000000018005e80                tSerialPortMain_eSerialPort_open
                0x000000001800600c                tSerialPortMain_eSerialPort_close
                0x0000000018006384                tSerialPortMain_eSerialPort_write
                0x0000000018006650                tSerialPortMain_eSerialPort_read
                0x0000000018006874                tSerialPortMain_eSerialPort_control
                0x00000000180068f4                tSerialPortMain_eSerialPort_refer
                0x0000000018006988                tSerialPortMain_eiSIOCBR_readySend
                0x0000000018006ac8                tSerialPortMain_eiSIOCBR_readyReceive
                0x0000000018006db0                tSerialPortMain_enSerialPortManage_getChar
 .text          0x0000000018006e7c      0x5d0 tSysLog.o
                0x0000000018007030                tSysLog_eSysLog_write
                0x00000000180071d0                tSysLog_eSysLog_read
                0x00000000180072e4                tSysLog_eSysLog_mask
                0x0000000018007338                tSysLog_eSysLog_refer
                0x00000000180073b8                tSysLog_eSysLog_flush
 .text          0x000000001800744c       0xc8 tSysLogAdapter.o
                0x000000001800744c                syslog_wri_log
                0x000000001800747c                syslog_rea_log
                0x00000000180074a4                syslog_msk_log
                0x00000000180074d4                syslog_ref_log
                0x00000000180074fc                syslog_fls_log
 .text          0x0000000018007514      0x378 tLogTaskMain.o
                0x00000000180075bc                tLogTaskMain_eLogTask_flush
                0x00000000180076c8                tLogTaskMain_eLogTaskBody_main
                0x00000000180077a4                tLogTaskMain_eLogTaskTerminate_main
 .text          0x000000001800788c       0xd8 tBannerMain.o
                0x00000000180078fc                tBannerMain_eBannerInitialize_main
 .text          0x0000000018007964      0x144 tPutLogGRPeach.o
                0x0000000018007a28                tPutLogGRPeach_initialize
                0x0000000018007a40                tPutLogGRPeach_ePutLog_putChar
 .text          0x0000000018007aa8      0x9d0 tSCIF.o
                0x0000000018007f44                tSCIF_eSIOPort_open
                0x00000000180081b4                tSCIF_eSIOPort_close
                0x00000000180081f4                tSCIF_eSIOPort_putChar
                0x0000000018008250                tSCIF_eSIOPort_getChar
                0x00000000180082b0                tSCIF_eSIOPort_enableCBR
                0x0000000018008354                tSCIF_eSIOPort_disableCBR
                0x00000000180083f8                tSCIF_eiRxISR_main
                0x0000000018008438                tSCIF_eiTxISR_main
 .text          0x0000000018008478       0x4c init_tecs.o
                0x0000000018008478                initialize_tecs
 .text          0x00000000180084c4       0xb8 kernel_cfg.o
                0x00000000180084dc                _kernel_inthdr_231
                0x00000000180084fc                _kernel_inthdr_232
                0x000000001800851c                _kernel_initialize_object
                0x000000001800853c                _kernel_call_inirtn
                0x000000001800855c                _kernel_call_terrtn
 .text          0x000000001800857c      0x368 libmbed.a(startup_RZ1AH.o)
                0x000000001800857c                Reset_Handler
                0x00000000180086d8                Undef_Handler
                0x0000000018008750                PAbt_Handler
                0x000000001800878c                DAbt_Handler
                0x00000000180087cc                FIQ_Handler
                0x00000000180087d0                IRQ_Handler
                0x00000000180088ac                SVC_Handler
                0x00000000180088ae                __user_initial_stackheap
 .text.RZ_A1_SetSramWriteEnable
                0x00000000180088e4       0x18 libmbed.a(RZ_A1_Init.o)
                0x00000000180088e4                RZ_A1_SetSramWriteEnable
 .text.RZ_A1_InitClock
                0x00000000180088fc       0x38 libmbed.a(RZ_A1_Init.o)
                0x00000000180088fc                RZ_A1_InitClock
 .text.RZ_A1_IsClockMode0
                0x0000000018008934        0xc libmbed.a(RZ_A1_Init.o)
                0x0000000018008934                RZ_A1_IsClockMode0
 .text.RZ_A1_InitBus
                0x0000000018008940        0x8 libmbed.a(RZ_A1_Init.o)
                0x0000000018008940                RZ_A1_InitBus
 .text.__xn_section
                0x0000000018008948       0x54 libmbed.a(mmu_Renesas_RZ_A1.o)
 .text.__domain_section
                0x000000001800899c       0x54 libmbed.a(mmu_Renesas_RZ_A1.o)
 .text.__p_section
                0x00000000180089f0       0x54 libmbed.a(mmu_Renesas_RZ_A1.o)
 .text.__ap_section
                0x0000000018008a44      0x1fc libmbed.a(mmu_Renesas_RZ_A1.o)
 .text.__shared_section
                0x0000000018008c40       0x54 libmbed.a(mmu_Renesas_RZ_A1.o)
 .text.__global_section
                0x0000000018008c94       0x54 libmbed.a(mmu_Renesas_RZ_A1.o)
 .text.__secure_section
                0x0000000018008ce8       0x54 libmbed.a(mmu_Renesas_RZ_A1.o)
 .text.__xn_page
                0x0000000018008d3c       0x9c libmbed.a(mmu_Renesas_RZ_A1.o)
 .text.__domain_page
                0x0000000018008dd8       0x54 libmbed.a(mmu_Renesas_RZ_A1.o)
 .text.__p_page
                0x0000000018008e2c       0x54 libmbed.a(mmu_Renesas_RZ_A1.o)
 .text.__ap_page
                0x0000000018008e80      0x1fc libmbed.a(mmu_Renesas_RZ_A1.o)
 .text.__shared_page
                0x000000001800907c       0x54 libmbed.a(mmu_Renesas_RZ_A1.o)
 .text.__global_page
                0x00000000180090d0       0x54 libmbed.a(mmu_Renesas_RZ_A1.o)
 .text.__secure_page
                0x0000000018009124       0x54 libmbed.a(mmu_Renesas_RZ_A1.o)
 .text.__memory_section
                0x0000000018009178      0x1a0 libmbed.a(mmu_Renesas_RZ_A1.o)
 .text.__memory_page
                0x0000000018009318      0x1c4 libmbed.a(mmu_Renesas_RZ_A1.o)
 .text.__get_section_descriptor
                0x00000000180094dc       0xe0 libmbed.a(mmu_Renesas_RZ_A1.o)
 .text.__get_page_descriptor
                0x00000000180095bc      0x240 libmbed.a(mmu_Renesas_RZ_A1.o)
 .text.__TTSection
                0x00000000180097fc       0xa0 libmbed.a(mmu_Renesas_RZ_A1.o)
 .text.create_translation_table
                0x000000001800989c      0x7bc libmbed.a(mmu_Renesas_RZ_A1.o)
                0x000000001800989c                create_translation_table
 .text.InitMemorySubsystem
                0x000000001800a058       0xd0 libmbed.a(system_MBRZA1H.o)
                0x000000001800a058                InitMemorySubsystem
 .text.InterruptHandlerRegister
                0x000000001800a128       0x64 libmbed.a(system_MBRZA1H.o)
                0x000000001800a128                InterruptHandlerRegister
 .text.SystemInit
                0x000000001800a18c       0x2c libmbed.a(system_MBRZA1H.o)
                0x000000001800a18c                SystemInit
 .text.CDAbtHandler
                0x000000001800a1b8       0x58 libmbed.a(system_MBRZA1H.o)
                0x000000001800a1b8                CDAbtHandler
 .text.CPAbtHandler
                0x000000001800a210       0x58 libmbed.a(system_MBRZA1H.o)
                0x000000001800a210                CPAbtHandler
 .text.CUndefHandler
                0x000000001800a268      0x130 libmbed.a(system_MBRZA1H.o)
                0x000000001800a268                CUndefHandler
 .text.FPUEnable
                0x000000001800a398       0xbc libmbed.a(system_MBRZA1H.o)
                0x000000001800a398                FPUEnable
 .text.gpio_write
                0x000000001800a454       0x50 libmbed.a(gpio.o)
 .text._gpio_init_out
                0x000000001800a4a4       0x6c libmbed.a(gpio.o)
 .text.gpio_init_out
                0x000000001800a510       0x34 libmbed.a(gpio.o)
                0x000000001800a510                gpio_init_out
 .text.gpio_init_out_ex
                0x000000001800a544       0x38 libmbed.a(gpio.o)
                0x000000001800a544                gpio_init_out_ex
 .text.init_main_task
                0x000000001800a57c       0x90 libmbed.a(common.o)
                0x000000001800a57c                init_main_task
 .text._ZN4mbed7Timeout7handlerEv
                0x000000001800a60c       0x28 libmbed.a(Timeout.o)
                0x000000001800a60c                mbed::Timeout::handler()
 .text._ZN4mbed19FunctionPointerArg1IvvE4callEv
                0x000000001800a634       0x8c libmbed.a(Timeout.o)
                0x000000001800a634                mbed::FunctionPointerArg1<void, void>::call()
 .text._ZN4mbed10TimerEventC2Ev
                0x000000001800a6c0       0x78 libmbed.a(TimerEvent.o)
                0x000000001800a6c0                mbed::TimerEvent::TimerEvent()
                0x000000001800a6c0                mbed::TimerEvent::TimerEvent()
 .text._ZN4mbed10TimerEvent3irqEm
                0x000000001800a738       0x38 libmbed.a(TimerEvent.o)
                0x000000001800a738                mbed::TimerEvent::irq(unsigned long)
 .text._ZN4mbed10TimerEventD2Ev
                0x000000001800a770       0x34 libmbed.a(TimerEvent.o)
                0x000000001800a770                mbed::TimerEvent::~TimerEvent()
                0x000000001800a770                mbed::TimerEvent::~TimerEvent()
 .text._ZN4mbed10TimerEvent6insertEm
                0x000000001800a7a4       0x38 libmbed.a(TimerEvent.o)
                0x000000001800a7a4                mbed::TimerEvent::insert(unsigned long)
 .text._ZN4mbed10TimerEvent6removeEv
                0x000000001800a7dc       0x34 libmbed.a(TimerEvent.o)
                0x000000001800a7dc                mbed::TimerEvent::remove()
 .text.__cxa_pure_virtual
                0x000000001800a810        0xc libmbed.a(retarget.o)
                0x000000001800a810                __cxa_pure_virtual
 .text._sbrk    0x000000001800a81c       0x7c libmbed.a(retarget.o)
                0x000000001800a81c                _sbrk
 .text._exit    0x000000001800a898       0x20 libmbed.a(retarget.o)
                0x000000001800a898                _exit
 .text._ZN4mbed6Ticker6detachEv
                0x000000001800a8b8       0x38 libmbed.a(Ticker.o)
                0x000000001800a8b8                mbed::Ticker::detach()
 .text._ZN4mbed6Ticker5setupEm
                0x000000001800a8f0       0x64 libmbed.a(Ticker.o)
                0x000000001800a8f0                mbed::Ticker::setup(unsigned long)
 .text._ZN4mbed6Ticker7handlerEv
                0x000000001800a954       0x48 libmbed.a(Ticker.o)
                0x000000001800a954                mbed::Ticker::handler()
 .text._ZN4mbed7TimeoutC2Ev
                0x000000001800a99c       0x38 libmbed.a(SoftPWM.o)
                0x000000001800a99c                mbed::Timeout::Timeout()
                0x000000001800a99c                mbed::Timeout::Timeout()
 .text._ZN7SoftPWMC2E7PinNameb
                0x000000001800a9d4       0xc8 libmbed.a(SoftPWM.o)
                0x000000001800a9d4                SoftPWM::SoftPWM(PinName, bool)
                0x000000001800a9d4                SoftPWM::SoftPWM(PinName, bool)
 .text._ZN7SoftPWM5startEv
                0x000000001800aa9c       0x50 libmbed.a(SoftPWM.o)
                0x000000001800aa9c                SoftPWM::start()
 .text._ZN7SoftPWM6periodEf
                0x000000001800aaec       0x30 libmbed.a(SoftPWM.o)
                0x000000001800aaec                SoftPWM::period(float)
 .text._ZN7SoftPWM9period_msEi
                0x000000001800ab1c       0x48 libmbed.a(SoftPWM.o)
                0x000000001800ab1c                SoftPWM::period_ms(int)
 .text._ZN7SoftPWM15TickerInterraptEv
                0x000000001800ab64       0xa0 libmbed.a(SoftPWM.o)
                0x000000001800ab64                SoftPWM::TickerInterrapt()
 .text._ZN7SoftPWM3endEv
                0x000000001800ac04       0x54 libmbed.a(SoftPWM.o)
                0x000000001800ac04                SoftPWM::end()
 .text._ZN4mbed6Ticker6attachI7SoftPWMEEvPT_MS3_FvvEf
                0x000000001800ac58       0x58 libmbed.a(SoftPWM.o)
                0x000000001800ac58                void mbed::Ticker::attach<SoftPWM>(SoftPWM*, void (SoftPWM::*)(), float)
 .text._ZN4mbed6Ticker9attach_usI7SoftPWMEEvPT_MS3_FvvEm
                0x000000001800acb0       0x48 libmbed.a(SoftPWM.o)
                0x000000001800acb0                void mbed::Ticker::attach_us<SoftPWM>(SoftPWM*, void (SoftPWM::*)(), unsigned long)
 .text._ZN4mbed19FunctionPointerArg1IvvE6attachI7SoftPWMEEvPT_MS4_FvvE
                0x000000001800acf8       0x54 libmbed.a(SoftPWM.o)
                0x000000001800acf8                void mbed::FunctionPointerArg1<void, void>::attach<SoftPWM>(SoftPWM*, void (SoftPWM::*)())
 .text._ZN4mbed19FunctionPointerArg1IvvE12membercallerI7SoftPWMEEvPvPj
                0x000000001800ad4c       0x94 libmbed.a(SoftPWM.o)
                0x000000001800ad4c                void mbed::FunctionPointerArg1<void, void>::membercaller<SoftPWM>(void*, unsigned int*)
 .text          0x000000001800ade0       0xb4 libmbed.a(cache.o)
                0x000000001800ade0                __v7_all_cache
 .text.GIC_EnableDistributor
                0x000000001800ae94       0x24 libmbed.a(gic.o)
                0x000000001800ae94                GIC_EnableDistributor
 .text.GIC_DisableDistributor
                0x000000001800aeb8       0x24 libmbed.a(gic.o)
                0x000000001800aeb8                GIC_DisableDistributor
 .text.GIC_DistributorInfo
                0x000000001800aedc       0x14 libmbed.a(gic.o)
                0x000000001800aedc                GIC_DistributorInfo
 .text.GIC_SetTarget
                0x000000001800aef0       0x68 libmbed.a(gic.o)
                0x000000001800aef0                GIC_SetTarget
 .text.GIC_EnableInterface
                0x000000001800af58       0x24 libmbed.a(gic.o)
                0x000000001800af58                GIC_EnableInterface
 .text.GIC_DisableInterface
                0x000000001800af7c       0x24 libmbed.a(gic.o)
                0x000000001800af7c                GIC_DisableInterface
 .text.GIC_EnableIRQ
                0x000000001800afa0       0x4c libmbed.a(gic.o)
                0x000000001800afa0                GIC_EnableIRQ
 .text.GIC_DisableIRQ
                0x000000001800afec       0x4c libmbed.a(gic.o)
                0x000000001800afec                GIC_DisableIRQ
 .text.GIC_SetPendingIRQ
                0x000000001800b038       0x4c libmbed.a(gic.o)
                0x000000001800b038                GIC_SetPendingIRQ
 .text.GIC_ClearPendingIRQ
                0x000000001800b084       0x4c libmbed.a(gic.o)
                0x000000001800b084                GIC_ClearPendingIRQ
 .text.GIC_SetPriority
                0x000000001800b0d0       0x60 libmbed.a(gic.o)
                0x000000001800b0d0                GIC_SetPriority
 .text.GIC_GetPriority
                0x000000001800b130       0x58 libmbed.a(gic.o)
                0x000000001800b130                GIC_GetPriority
 .text.GIC_InterfacePriorityMask
                0x000000001800b188       0x28 libmbed.a(gic.o)
                0x000000001800b188                GIC_InterfacePriorityMask
 .text.GIC_SetBinaryPoint
                0x000000001800b1b0       0x28 libmbed.a(gic.o)
                0x000000001800b1b0                GIC_SetBinaryPoint
 .text.GIC_DistInit
                0x000000001800b1d8      0x34c libmbed.a(gic.o)
                0x000000001800b1d8                GIC_DistInit
 .text.GIC_CPUInterfaceInit
                0x000000001800b524       0x8c libmbed.a(gic.o)
                0x000000001800b524                GIC_CPUInterfaceInit
 .text.GIC_Enable
                0x000000001800b5b0       0x14 libmbed.a(gic.o)
                0x000000001800b5b0                GIC_Enable
 .text.PL310_Sync
                0x000000001800b5c4       0x18 libmbed.a(pl310.o)
                0x000000001800b5c4                PL310_Sync
 .text.PL310_GetID
                0x000000001800b5dc       0x14 libmbed.a(pl310.o)
                0x000000001800b5dc                PL310_GetID
 .text.PL310_InvAllByWay
                0x000000001800b5f0       0x8c libmbed.a(pl310.o)
                0x000000001800b5f0                PL310_InvAllByWay
 .text.PL310_Enable
                0x000000001800b67c       0x70 libmbed.a(pl310.o)
                0x000000001800b67c                PL310_Enable
 .text.gpio_set
                0x000000001800b6ec       0x3c libmbed.a(gpio_api.o)
                0x000000001800b6ec                gpio_set
 .text.gpio_init
                0x000000001800b728       0xf8 libmbed.a(gpio_api.o)
                0x000000001800b728                gpio_init
 .text.gpio_mode
                0x000000001800b820       0x1c libmbed.a(gpio_api.o)
                0x000000001800b820                gpio_mode
 .text.gpio_dir
                0x000000001800b83c       0xc4 libmbed.a(gpio_api.o)
                0x000000001800b83c                gpio_dir
 .text.pin_function
                0x000000001800b900      0x570 libmbed.a(pinmap.o)
                0x000000001800b900                pin_function
 .text.mbed_die
                0x000000001800be70       0x28 libmbed.a(board.o)
                0x000000001800be70                mbed_die
 .text.get_us_ticker_data
                0x000000001800be98       0x10 libmbed.a(us_ticker_api.o)
                0x000000001800be98                get_us_ticker_data
 .text.us_ticker_irq_handler
                0x000000001800bea8       0x18 libmbed.a(us_ticker_api.o)
                0x000000001800bea8                us_ticker_irq_handler
 .text.wait_ms  0x000000001800bec0       0x2c libmbed.a(wait_api.o)
                0x000000001800bec0                wait_ms
 .text.wait_us  0x000000001800beec       0x40 libmbed.a(wait_api.o)
                0x000000001800beec                wait_us
 .text.ticker_set_handler
                0x000000001800bf2c       0x3c libmbed.a(ticker_api.o)
                0x000000001800bf2c                ticker_set_handler
 .text.ticker_irq_handler
                0x000000001800bf68      0x100 libmbed.a(ticker_api.o)
                0x000000001800bf68                ticker_irq_handler
 .text.ticker_insert_event
                0x000000001800c068       0xf4 libmbed.a(ticker_api.o)
                0x000000001800c068                ticker_insert_event
 .text.ticker_remove_event
                0x000000001800c15c       0xfc libmbed.a(ticker_api.o)
                0x000000001800c15c                ticker_remove_event
 .text.ticker_read
                0x000000001800c258       0x2c libmbed.a(ticker_api.o)
                0x000000001800c258                ticker_read
 .text.us_ticker_interrupt
                0x000000001800c284       0x10 libmbed.a(us_ticker.o)
                0x000000001800c284                us_ticker_interrupt
 .text.us_ticker_init
                0x000000001800c294       0xf4 libmbed.a(us_ticker.o)
                0x000000001800c294                us_ticker_init
 .text.ticker_read_counter64
                0x000000001800c388       0xbc libmbed.a(us_ticker.o)
 .text.us_ticker_read
                0x000000001800c444       0x88 libmbed.a(us_ticker.o)
                0x000000001800c444                us_ticker_read
 .text.us_ticker_set_interrupt
                0x000000001800c4cc      0x114 libmbed.a(us_ticker.o)
                0x000000001800c4cc                us_ticker_set_interrupt
 .text.us_ticker_disable_interrupt
                0x000000001800c5e0       0x14 libmbed.a(us_ticker.o)
                0x000000001800c5e0                us_ticker_disable_interrupt
 .text.us_ticker_clear_interrupt
                0x000000001800c5f4       0x14 libmbed.a(us_ticker.o)
                0x000000001800c5f4                us_ticker_clear_interrupt
 .text          0x000000001800c608       0x8c ./libkernel.a(target_support.o)
                0x000000001800c608                hardware_init_hook
 *fill*         0x000000001800c694       0x6c 
 .text          0x000000001800c700      0x450 ./libkernel.a(core_support.o)
                0x000000001800c700                _kernel_dispatch
                0x000000001800c72c                _kernel_start_dispatch
                0x000000001800c754                _kernel_exit_and_dispatch
                0x000000001800c780                _kernel_call_exit_kernel
                0x000000001800c790                _kernel_start_r
                0x000000001800c7a8                _kernel_irq_handler
                0x000000001800c88c                _kernel_undef_handler
                0x000000001800c8a0                _kernel_svc_handler
                0x000000001800c8b4                _kernel_pabort_handler
                0x000000001800c8c8                _kernel_dabort_handler
                0x000000001800c928                _kernel_fiq_handler
                0x000000001800cb00                sil_dly_nse
 .text          0x000000001800cb50      0x664 ./libkernel.a(target_kernel_impl.o)
                0x000000001800d140                _kernel_target_initialize
                0x000000001800d16c                _kernel_target_exit
                0x000000001800d180                gr_peach_set_led
 .text          0x000000001800d1b4      0x85c ./libkernel.a(chip_kernel_impl.o)
                0x000000001800d754                _kernel_chip_initialize
                0x000000001800d788                _kernel_chip_terminate
                0x000000001800d984                _kernel_initialize_interrupt
 .text          0x000000001800da10      0x2c8 ./libkernel.a(gic_kernel_impl.o)
                0x000000001800da9c                _kernel_gicc_initialize
                0x000000001800db04                _kernel_gicc_terminate
                0x000000001800db24                _kernel_gicd_initialize
                0x000000001800dcb8                _kernel_gicd_terminate
 .text          0x000000001800dcd8      0x320 ./libkernel.a(chip_timer.o)
                0x000000001800dea0                _kernel_target_hrt_initialize
                0x000000001800def4                _kernel_target_hrt_terminate
                0x000000001800df28                _kernel_target_hrt_set_event
                0x000000001800dfcc                _kernel_target_hrt_raise_event
                0x000000001800dfe4                _kernel_target_hrt_handler
 .text          0x000000001800dff8      0x784 ./libkernel.a(core_kernel_impl.o)
                0x000000001800e2d4                _kernel_arm_mmu_initialize
                0x000000001800e3c4                _kernel_core_initialize
                0x000000001800e3e8                _kernel_core_terminate
                0x000000001800e400                _kernel_xlog_sys
                0x000000001800e4ec                _kernel_xlog_fsr
                0x000000001800e600                _kernel_default_int_handler
                0x000000001800e62c                _kernel_default_exc_handler
 .text          0x000000001800e77c      0x4a8 ./libkernel.a(arm.o)
                0x000000001800e82c                arm_enable_dcache
                0x000000001800e874                arm_disable_dcache
                0x000000001800e8c4                arm_enable_icache
                0x000000001800e90c                arm_disable_icache
                0x000000001800e944                armv7_invalidate_dcache
                0x000000001800eab4                armv7_clean_and_invalidate_dcache
 .text          0x000000001800ec24      0x198 ./libkernel.a(startup.o)
                0x000000001800ed3c                sta_ker
                0x000000001800ed84                ext_ker
                0x000000001800edac                _kernel_exit_kernel
 .text          0x000000001800edbc      0xd14 ./libkernel.a(task.o)
                0x000000001800f228                _kernel_initialize_task
                0x000000001800f4a4                _kernel_search_schedtsk
                0x000000001800f4d4                _kernel_make_runnable
                0x000000001800f580                _kernel_make_non_runnable
                0x000000001800f6d4                _kernel_make_dormant
                0x000000001800f760                _kernel_make_active
                0x000000001800f7c4                _kernel_change_priority
                0x000000001800f974                _kernel_rotate_ready_queue
                0x000000001800fa14                _kernel_task_terminate
 .text          0x000000001800fad0      0xd4c ./libkernel.a(time_event.o)
                0x000000001800fce8                _kernel_initialize_tmevt
                0x000000001800fd7c                _kernel_tmevt_up
                0x000000001800fe50                _kernel_tmevt_down
                0x0000000018010220                _kernel_update_current_evttim
                0x0000000018010388                _kernel_set_hrt_event
                0x0000000018010468                _kernel_tmevtb_register
                0x000000001801048c                _kernel_tmevtb_enqueue
                0x0000000018010500                _kernel_tmevtb_dequeue
                0x0000000018010560                _kernel_check_adjtim
                0x000000001801064c                _kernel_tmevt_lefttim
                0x00000000180106c4                _kernel_signal_time
 .text          0x000000001801081c      0xd28 ./libkernel.a(task_sync.o)
                0x0000000018010b20                slp_tsk
                0x0000000018010c20                tslp_tsk
                0x0000000018010d7c                wup_tsk
                0x0000000018010ef0                can_wup
                0x0000000018011000                rel_wai
                0x0000000018011114                sus_tsk
                0x00000000180112e4                rsm_tsk
                0x0000000018011414                dly_tsk
 .text          0x0000000018011544      0x804 ./libkernel.a(task_term.o)
                0x0000000018011824                ext_tsk
                0x00000000180118dc                ras_ter
                0x0000000018011aa4                dis_ter
                0x0000000018011b14                ena_ter
                0x0000000018011bd0                sns_ter
                0x0000000018011c34                ter_tsk
 .text          0x0000000018011d48      0xa4c ./libkernel.a(semaphore.o)
                0x0000000018012034                _kernel_initialize_semaphore
                0x00000000180120e0                sig_sem
                0x0000000018012224                wai_sem
                0x0000000018012364                pol_sem
                0x000000001801243c                twai_sem
                0x00000000180125d4                ini_sem
                0x00000000180126c0                ref_sem
 .text          0x0000000018012794      0x8bc ./libkernel.a(sys_manage.o)
                0x0000000018012920                rot_rdq
                0x0000000018012a20                get_tid
                0x0000000018012ab4                get_lod
                0x0000000018012bcc                get_nth
                0x0000000018012d14                loc_cpu
                0x0000000018012d4c                unl_cpu
                0x0000000018012d84                dis_dsp
                0x0000000018012dfc                ena_dsp
                0x0000000018012f00                sns_ctx
                0x0000000018012f38                sns_loc
                0x0000000018012f70                sns_dsp
                0x0000000018012fb0                sns_dpn
                0x0000000018013010                sns_ker
 .text          0x0000000018013050      0xa10 ./libkernel.a(interrupt.o)
                0x000000001801359c                dis_int
                0x0000000018013630                ena_int
                0x00000000180136c4                clr_int
                0x0000000018013778                ras_int
                0x0000000018013820                prb_int
                0x00000000180138b0                chg_ipm
                0x00000000180139f4                get_ipm
 .text          0x0000000018013a60       0xe0 ./libkernel.a(gic_support.o)
                0x0000000018013a60                _kernel_irc_begin_int
                0x0000000018013ae0                _kernel_irc_end_int
                0x0000000018013af0                _kernel_irc_get_intpri
                0x0000000018013b04                _kernel_irc_begin_exc
                0x0000000018013b14                _kernel_irc_end_exc
 .text          0x0000000018013b40      0x77c ./libkernel.a(wait.o)
                0x0000000018013fb8                _kernel_make_wait_tmout
                0x0000000018014098                _kernel_wait_complete
                0x00000000180140d4                _kernel_wait_tmout
                0x000000001801411c                _kernel_wait_tmout_ok
                0x00000000180141cc                _kernel_wobj_make_wait
                0x000000001801420c                _kernel_wobj_make_wait_tmout
                0x000000001801425c                _kernel_init_wait_queue
 *fill*         0x00000000180142bc        0x4 
 .text          0x00000000180142c0      0x278 /opt/Atollic_TrueSTUDIO_for_ARM_x86_64_8.0.0/ARMTools/bin/../lib/gcc/arm-atollic-eabi/6.3.1/armv7-ar/thumb/fpu/libgcc.a(_udivsi3.o)
                0x00000000180142c0                __udivsi3
                0x00000000180142c0                __aeabi_uidiv
                0x000000001801451c                __aeabi_uidivmod
 .text          0x0000000018014538      0x2b0 /opt/Atollic_TrueSTUDIO_for_ARM_x86_64_8.0.0/ARMTools/bin/../lib/gcc/arm-atollic-eabi/6.3.1/armv7-ar/thumb/fpu/libgcc.a(_divsi3.o)
                0x0000000018014538                __aeabi_idiv
                0x0000000018014538                __divsi3
                0x00000000180147cc                __aeabi_idivmod
 .text          0x00000000180147e8        0x4 /opt/Atollic_TrueSTUDIO_for_ARM_x86_64_8.0.0/ARMTools/bin/../lib/gcc/arm-atollic-eabi/6.3.1/armv7-ar/thumb/fpu/libgcc.a(_dvmd_tls.o)
                0x00000000180147e8                __aeabi_ldiv0
                0x00000000180147e8                __aeabi_idiv0
 .text          0x00000000180147ec      0x370 /opt/Atollic_TrueSTUDIO_for_ARM_x86_64_8.0.0/ARMTools/bin/../lib/gcc/arm-atollic-eabi/6.3.1/armv7-ar/thumb/fpu/libgcc.a(_arm_addsubdf3.o)
                0x00000000180147ec                __aeabi_drsub
                0x00000000180147f4                __aeabi_dsub
                0x00000000180147f4                __subdf3
                0x00000000180147f8                __adddf3
                0x00000000180147f8                __aeabi_dadd
                0x0000000018014a70                __aeabi_ui2d
                0x0000000018014a70                __floatunsidf
                0x0000000018014a90                __floatsidf
                0x0000000018014a90                __aeabi_i2d
                0x0000000018014ab4                __extendsfdf2
                0x0000000018014ab4                __aeabi_f2d
                0x0000000018014af0                __aeabi_ul2d
                0x0000000018014af0                __floatundidf
                0x0000000018014b00                __floatdidf
                0x0000000018014b00                __aeabi_l2d
 *fill*         0x0000000018014b5c        0x4 
 .text          0x0000000018014b60       0x48 /opt/Atollic_TrueSTUDIO_for_ARM_x86_64_8.0.0/ARMTools/bin/../lib/gcc/arm-atollic-eabi/6.3.1/armv7-ar/thumb/fpu/libgcc.a(_fixunsdfdi.o)
                0x0000000018014b60                __aeabi_d2ulz
                0x0000000018014b60                __fixunsdfdi
 .text._ZdlPv   0x0000000018014ba8        0x4 /opt/Atollic_TrueSTUDIO_for_ARM_x86_64_8.0.0/ARMTools/bin/../lib/gcc/arm-atollic-eabi/6.3.1/../../../../arm-atollic-eabi/lib/armv7-ar/thumb/fpu/libstdc++_nano.a(del_op.o)
                0x0000000018014ba8                operator delete(void*)
 .text.__aeabi_atexit
                0x0000000018014bac        0xa /opt/Atollic_TrueSTUDIO_for_ARM_x86_64_8.0.0/ARMTools/bin/../lib/gcc/arm-atollic-eabi/6.3.1/../../../../arm-atollic-eabi/lib/armv7-ar/thumb/fpu/libstdc++_nano.a(atexit_arm.o)
                0x0000000018014bac                __aeabi_atexit
 *fill*         0x0000000018014bb6        0x2 
 .text.__cxa_atexit
                0x0000000018014bb8       0x1c /opt/Atollic_TrueSTUDIO_for_ARM_x86_64_8.0.0/ARMTools/bin/../lib/gcc/arm-atollic-eabi/6.3.1/../../../../arm-atollic-eabi/lib/armv7-ar/thumb/fpu/libc_nano.a(lib_a-cxa_atexit.o)
                0x0000000018014bb8                __cxa_atexit
 .text.exit     0x0000000018014bd4       0x28 /opt/Atollic_TrueSTUDIO_for_ARM_x86_64_8.0.0/ARMTools/bin/../lib/gcc/arm-atollic-eabi/6.3.1/../../../../arm-atollic-eabi/lib/armv7-ar/thumb/fpu/libc_nano.a(lib_a-exit.o)
                0x0000000018014bd4                exit
 .text.malloc   0x0000000018014bfc       0x10 /opt/Atollic_TrueSTUDIO_for_ARM_x86_64_8.0.0/ARMTools/bin/../lib/gcc/arm-atollic-eabi/6.3.1/../../../../arm-atollic-eabi/lib/armv7-ar/thumb/fpu/libc_nano.a(lib_a-malloc.o)
                0x0000000018014bfc                malloc
 .text.free     0x0000000018014c0c       0x10 /opt/Atollic_TrueSTUDIO_for_ARM_x86_64_8.0.0/ARMTools/bin/../lib/gcc/arm-atollic-eabi/6.3.1/../../../../arm-atollic-eabi/lib/armv7-ar/thumb/fpu/libc_nano.a(lib_a-malloc.o)
                0x0000000018014c0c                free
 .text.memchr   0x0000000018014c1c       0x1c /opt/Atollic_TrueSTUDIO_for_ARM_x86_64_8.0.0/ARMTools/bin/../lib/gcc/arm-atollic-eabi/6.3.1/../../../../arm-atollic-eabi/lib/armv7-ar/thumb/fpu/libc_nano.a(lib_a-memchr-stub.o)
                0x0000000018014c1c                memchr
 .text.memcpy   0x0000000018014c38       0x16 /opt/Atollic_TrueSTUDIO_for_ARM_x86_64_8.0.0/ARMTools/bin/../lib/gcc/arm-atollic-eabi/6.3.1/../../../../arm-atollic-eabi/lib/armv7-ar/thumb/fpu/libc_nano.a(lib_a-memcpy-stub.o)
                0x0000000018014c38                memcpy
 .text.memset   0x0000000018014c4e       0x10 /opt/Atollic_TrueSTUDIO_for_ARM_x86_64_8.0.0/ARMTools/bin/../lib/gcc/arm-atollic-eabi/6.3.1/../../../../arm-atollic-eabi/lib/armv7-ar/thumb/fpu/libc_nano.a(lib_a-memset.o)
                0x0000000018014c4e                memset
 *fill*         0x0000000018014c5e        0x2 
 .text._free_r  0x0000000018014c60       0x98 /opt/Atollic_TrueSTUDIO_for_ARM_x86_64_8.0.0/ARMTools/bin/../lib/gcc/arm-atollic-eabi/6.3.1/../../../../arm-atollic-eabi/lib/armv7-ar/thumb/fpu/libc_nano.a(lib_a-nano-freer.o)
                0x0000000018014c60                _free_r
 .text._malloc_r
                0x0000000018014cf8       0xbc /opt/Atollic_TrueSTUDIO_for_ARM_x86_64_8.0.0/ARMTools/bin/../lib/gcc/arm-atollic-eabi/6.3.1/../../../../arm-atollic-eabi/lib/armv7-ar/thumb/fpu/libc_nano.a(lib_a-nano-mallocr.o)
                0x0000000018014cf8                _malloc_r
 .text.__cvt    0x0000000018014db4       0xa6 /opt/Atollic_TrueSTUDIO_for_ARM_x86_64_8.0.0/ARMTools/bin/../lib/gcc/arm-atollic-eabi/6.3.1/../../../../arm-atollic-eabi/lib/armv7-ar/thumb/fpu/libc_nano.a(lib_a-nano-vfprintf_float.o)
                0x0000000018014db4                __cvt
 .text.__exponent
                0x0000000018014e5a       0x76 /opt/Atollic_TrueSTUDIO_for_ARM_x86_64_8.0.0/ARMTools/bin/../lib/gcc/arm-atollic-eabi/6.3.1/../../../../arm-atollic-eabi/lib/armv7-ar/thumb/fpu/libc_nano.a(lib_a-nano-vfprintf_float.o)
                0x0000000018014e5a                __exponent
 .text._printf_float
                0x0000000018014ed0      0x458 /opt/Atollic_TrueSTUDIO_for_ARM_x86_64_8.0.0/ARMTools/bin/../lib/gcc/arm-atollic-eabi/6.3.1/../../../../arm-atollic-eabi/lib/armv7-ar/thumb/fpu/libc_nano.a(lib_a-nano-vfprintf_float.o)
                0x0000000018014ed0                _printf_float
 .text._printf_common
                0x0000000018015328       0xf4 /opt/Atollic_TrueSTUDIO_for_ARM_x86_64_8.0.0/ARMTools/bin/../lib/gcc/arm-atollic-eabi/6.3.1/../../../../arm-atollic-eabi/lib/armv7-ar/thumb/fpu/libc_nano.a(lib_a-nano-vfprintf_i.o)
                0x0000000018015328                _printf_common
 .text._printf_i
                0x000000001801541c      0x258 /opt/Atollic_TrueSTUDIO_for_ARM_x86_64_8.0.0/ARMTools/bin/../lib/gcc/arm-atollic-eabi/6.3.1/../../../../arm-atollic-eabi/lib/armv7-ar/thumb/fpu/libc_nano.a(lib_a-nano-vfprintf_i.o)
                0x000000001801541c                _printf_i
 .text._scanf_float
                0x0000000018015674      0x3b4 /opt/Atollic_TrueSTUDIO_for_ARM_x86_64_8.0.0/ARMTools/bin/../lib/gcc/arm-atollic-eabi/6.3.1/../../../../arm-atollic-eabi/lib/armv7-ar/thumb/fpu/libc_nano.a(lib_a-nano-vfscanf_float.o)
                0x0000000018015674                _scanf_float
 .text._sbrk_r  0x0000000018015a28       0x20 /opt/Atollic_TrueSTUDIO_for_ARM_x86_64_8.0.0/ARMTools/bin/../lib/gcc/arm-atollic-eabi/6.3.1/../../../../arm-atollic-eabi/lib/armv7-ar/thumb/fpu/libc_nano.a(lib_a-sbrkr.o)
                0x0000000018015a28                _sbrk_r
 .text.nanf     0x0000000018015a48        0xc /opt/Atollic_TrueSTUDIO_for_ARM_x86_64_8.0.0/ARMTools/bin/../lib/gcc/arm-atollic-eabi/6.3.1/../../../../arm-atollic-eabi/lib/armv7-ar/thumb/fpu/libc_nano.a(lib_a-sf_nan.o)
                0x0000000018015a48                nanf
 .text.sprintf  0x0000000018015a54       0x48 /opt/Atollic_TrueSTUDIO_for_ARM_x86_64_8.0.0/ARMTools/bin/../lib/gcc/arm-atollic-eabi/6.3.1/../../../../arm-atollic-eabi/lib/armv7-ar/thumb/fpu/libc_nano.a(lib_a-sprintf.o)
                0x0000000018015a54                sprintf
                0x0000000018015a54                siprintf
 .text          0x0000000018015a9c       0x10 /opt/Atollic_TrueSTUDIO_for_ARM_x86_64_8.0.0/ARMTools/bin/../lib/gcc/arm-atollic-eabi/6.3.1/../../../../arm-atollic-eabi/lib/armv7-ar/thumb/fpu/libc_nano.a(lib_a-strlen.o)
                0x0000000018015a9c                strlen
 .text.strncmp  0x0000000018015aac       0x24 /opt/Atollic_TrueSTUDIO_for_ARM_x86_64_8.0.0/ARMTools/bin/../lib/gcc/arm-atollic-eabi/6.3.1/../../../../arm-atollic-eabi/lib/armv7-ar/thumb/fpu/libc_nano.a(lib_a-strncmp.o)
                0x0000000018015aac                strncmp
 .text.unlikely.sulp
                0x0000000018015ad0       0x34 /opt/Atollic_TrueSTUDIO_for_ARM_x86_64_8.0.0/ARMTools/bin/../lib/gcc/arm-atollic-eabi/6.3.1/../../../../arm-atollic-eabi/lib/armv7-ar/thumb/fpu/libc_nano.a(lib_a-strtod.o)
 *fill*         0x0000000018015b04        0x4 
 .text._strtod_l
                0x0000000018015b08      0xb78 /opt/Atollic_TrueSTUDIO_for_ARM_x86_64_8.0.0/ARMTools/bin/../lib/gcc/arm-atollic-eabi/6.3.1/../../../../arm-atollic-eabi/lib/armv7-ar/thumb/fpu/libc_nano.a(lib_a-strtod.o)
                0x0000000018015b08                _strtod_l
 .text._strtod_r
                0x0000000018016680       0x20 /opt/Atollic_TrueSTUDIO_for_ARM_x86_64_8.0.0/ARMTools/bin/../lib/gcc/arm-atollic-eabi/6.3.1/../../../../arm-atollic-eabi/lib/armv7-ar/thumb/fpu/libc_nano.a(lib_a-strtod.o)
                0x0000000018016680                _strtod_r
 .text._strtol_l.isra.0
                0x00000000180166a0      0x10a /opt/Atollic_TrueSTUDIO_for_ARM_x86_64_8.0.0/ARMTools/bin/../lib/gcc/arm-atollic-eabi/6.3.1/../../../../arm-atollic-eabi/lib/armv7-ar/thumb/fpu/libc_nano.a(lib_a-strtol.o)
 *fill*         0x00000000180167aa        0x2 
 .text._strtol_r
                0x00000000180167ac       0x24 /opt/Atollic_TrueSTUDIO_for_ARM_x86_64_8.0.0/ARMTools/bin/../lib/gcc/arm-atollic-eabi/6.3.1/../../../../arm-atollic-eabi/lib/armv7-ar/thumb/fpu/libc_nano.a(lib_a-strtol.o)
                0x00000000180167ac                _strtol_r
 .text.quorem   0x00000000180167d0      0x120 /opt/Atollic_TrueSTUDIO_for_ARM_x86_64_8.0.0/ARMTools/bin/../lib/gcc/arm-atollic-eabi/6.3.1/../../../../arm-atollic-eabi/lib/armv7-ar/thumb/fpu/libc_nano.a(lib_a-dtoa.o)
 .text._dtoa_r  0x00000000180168f0      0xac4 /opt/Atollic_TrueSTUDIO_for_ARM_x86_64_8.0.0/ARMTools/bin/../lib/gcc/arm-atollic-eabi/6.3.1/../../../../arm-atollic-eabi/lib/armv7-ar/thumb/fpu/libc_nano.a(lib_a-dtoa.o)
                0x00000000180168f0                _dtoa_r
 .text.rshift   0x00000000180173b4       0x6a /opt/Atollic_TrueSTUDIO_for_ARM_x86_64_8.0.0/ARMTools/bin/../lib/gcc/arm-atollic-eabi/6.3.1/../../../../arm-atollic-eabi/lib/armv7-ar/thumb/fpu/libc_nano.a(lib_a-gdtoa-gethex.o)
 .text.__hexdig_fun
                0x000000001801741e       0x2a /opt/Atollic_TrueSTUDIO_for_ARM_x86_64_8.0.0/ARMTools/bin/../lib/gcc/arm-atollic-eabi/6.3.1/../../../../arm-atollic-eabi/lib/armv7-ar/thumb/fpu/libc_nano.a(lib_a-gdtoa-gethex.o)
                0x000000001801741e                __hexdig_fun
 .text.__gethex
                0x0000000018017448      0x43c /opt/Atollic_TrueSTUDIO_for_ARM_x86_64_8.0.0/ARMTools/bin/../lib/gcc/arm-atollic-eabi/6.3.1/../../../../arm-atollic-eabi/lib/armv7-ar/thumb/fpu/libc_nano.a(lib_a-gdtoa-gethex.o)
                0x0000000018017448                __gethex
 .text.L_shift  0x0000000018017884       0x24 /opt/Atollic_TrueSTUDIO_for_ARM_x86_64_8.0.0/ARMTools/bin/../lib/gcc/arm-atollic-eabi/6.3.1/../../../../arm-atollic-eabi/lib/armv7-ar/thumb/fpu/libc_nano.a(lib_a-gdtoa-hexnan.o)
 .text.__match  0x00000000180178a8       0x26 /opt/Atollic_TrueSTUDIO_for_ARM_x86_64_8.0.0/ARMTools/bin/../lib/gcc/arm-atollic-eabi/6.3.1/../../../../arm-atollic-eabi/lib/armv7-ar/thumb/fpu/libc_nano.a(lib_a-gdtoa-hexnan.o)
                0x00000000180178a8                __match
 .text.__hexnan
                0x00000000180178ce      0x11e /opt/Atollic_TrueSTUDIO_for_ARM_x86_64_8.0.0/ARMTools/bin/../lib/gcc/arm-atollic-eabi/6.3.1/../../../../arm-atollic-eabi/lib/armv7-ar/thumb/fpu/libc_nano.a(lib_a-gdtoa-hexnan.o)
                0x00000000180178ce                __hexnan
 .text.__locale_ctype_ptr_l
                0x00000000180179ec        0x6 /opt/Atollic_TrueSTUDIO_for_ARM_x86_64_8.0.0/ARMTools/bin/../lib/gcc/arm-atollic-eabi/6.3.1/../../../../arm-atollic-eabi/lib/armv7-ar/thumb/fpu/libc_nano.a(lib_a-locale.o)
                0x00000000180179ec                __locale_ctype_ptr_l
 .text.__localeconv_l
                0x00000000180179f2        0x4 /opt/Atollic_TrueSTUDIO_for_ARM_x86_64_8.0.0/ARMTools/bin/../lib/gcc/arm-atollic-eabi/6.3.1/../../../../arm-atollic-eabi/lib/armv7-ar/thumb/fpu/libc_nano.a(lib_a-localeconv.o)
                0x00000000180179f2                __localeconv_l
 *fill*         0x00000000180179f6        0x2 
 .text._localeconv_r
                0x00000000180179f8       0x1c /opt/Atollic_TrueSTUDIO_for_ARM_x86_64_8.0.0/ARMTools/bin/../lib/gcc/arm-atollic-eabi/6.3.1/../../../../arm-atollic-eabi/lib/armv7-ar/thumb/fpu/libc_nano.a(lib_a-localeconv.o)
                0x00000000180179f8                _localeconv_r
 .text.__ascii_mbtowc
                0x0000000018017a14       0x24 /opt/Atollic_TrueSTUDIO_for_ARM_x86_64_8.0.0/ARMTools/bin/../lib/gcc/arm-atollic-eabi/6.3.1/../../../../arm-atollic-eabi/lib/armv7-ar/thumb/fpu/libc_nano.a(lib_a-mbtowc_r.o)
                0x0000000018017a14                __ascii_mbtowc
 .text.__malloc_lock
                0x0000000018017a38        0x2 /opt/Atollic_TrueSTUDIO_for_ARM_x86_64_8.0.0/ARMTools/bin/../lib/gcc/arm-atollic-eabi/6.3.1/../../../../arm-atollic-eabi/lib/armv7-ar/thumb/fpu/libc_nano.a(lib_a-mlock.o)
                0x0000000018017a38                __malloc_lock
 .text.__malloc_unlock
                0x0000000018017a3a        0x2 /opt/Atollic_TrueSTUDIO_for_ARM_x86_64_8.0.0/ARMTools/bin/../lib/gcc/arm-atollic-eabi/6.3.1/../../../../arm-atollic-eabi/lib/armv7-ar/thumb/fpu/libc_nano.a(lib_a-mlock.o)
                0x0000000018017a3a                __malloc_unlock
 .text._Balloc  0x0000000018017a3c       0x68 /opt/Atollic_TrueSTUDIO_for_ARM_x86_64_8.0.0/ARMTools/bin/../lib/gcc/arm-atollic-eabi/6.3.1/../../../../arm-atollic-eabi/lib/armv7-ar/thumb/fpu/libc_nano.a(lib_a-mprec.o)
                0x0000000018017a3c                _Balloc
 .text._Bfree   0x0000000018017aa4       0x2e /opt/Atollic_TrueSTUDIO_for_ARM_x86_64_8.0.0/ARMTools/bin/../lib/gcc/arm-atollic-eabi/6.3.1/../../../../arm-atollic-eabi/lib/armv7-ar/thumb/fpu/libc_nano.a(lib_a-mprec.o)
                0x0000000018017aa4                _Bfree
 .text.__multadd
                0x0000000018017ad2       0x7a /opt/Atollic_TrueSTUDIO_for_ARM_x86_64_8.0.0/ARMTools/bin/../lib/gcc/arm-atollic-eabi/6.3.1/../../../../arm-atollic-eabi/lib/armv7-ar/thumb/fpu/libc_nano.a(lib_a-mprec.o)
                0x0000000018017ad2                __multadd
 .text.__s2b    0x0000000018017b4c       0x7e /opt/Atollic_TrueSTUDIO_for_ARM_x86_64_8.0.0/ARMTools/bin/../lib/gcc/arm-atollic-eabi/6.3.1/../../../../arm-atollic-eabi/lib/armv7-ar/thumb/fpu/libc_nano.a(lib_a-mprec.o)
                0x0000000018017b4c                __s2b
 .text.__hi0bits
                0x0000000018017bca       0x3e /opt/Atollic_TrueSTUDIO_for_ARM_x86_64_8.0.0/ARMTools/bin/../lib/gcc/arm-atollic-eabi/6.3.1/../../../../arm-atollic-eabi/lib/armv7-ar/thumb/fpu/libc_nano.a(lib_a-mprec.o)
                0x0000000018017bca                __hi0bits
 .text.__lo0bits
                0x0000000018017c08       0x5e /opt/Atollic_TrueSTUDIO_for_ARM_x86_64_8.0.0/ARMTools/bin/../lib/gcc/arm-atollic-eabi/6.3.1/../../../../arm-atollic-eabi/lib/armv7-ar/thumb/fpu/libc_nano.a(lib_a-mprec.o)
                0x0000000018017c08                __lo0bits
 .text.__i2b    0x0000000018017c66       0x12 /opt/Atollic_TrueSTUDIO_for_ARM_x86_64_8.0.0/ARMTools/bin/../lib/gcc/arm-atollic-eabi/6.3.1/../../../../arm-atollic-eabi/lib/armv7-ar/thumb/fpu/libc_nano.a(lib_a-mprec.o)
                0x0000000018017c66                __i2b
 .text.__multiply
                0x0000000018017c78      0x11a /opt/Atollic_TrueSTUDIO_for_ARM_x86_64_8.0.0/ARMTools/bin/../lib/gcc/arm-atollic-eabi/6.3.1/../../../../arm-atollic-eabi/lib/armv7-ar/thumb/fpu/libc_nano.a(lib_a-mprec.o)
                0x0000000018017c78                __multiply
 *fill*         0x0000000018017d92        0x2 
 .text.__pow5mult
                0x0000000018017d94       0x9c /opt/Atollic_TrueSTUDIO_for_ARM_x86_64_8.0.0/ARMTools/bin/../lib/gcc/arm-atollic-eabi/6.3.1/../../../../arm-atollic-eabi/lib/armv7-ar/thumb/fpu/libc_nano.a(lib_a-mprec.o)
                0x0000000018017d94                __pow5mult
 .text.__lshift
                0x0000000018017e30       0xa2 /opt/Atollic_TrueSTUDIO_for_ARM_x86_64_8.0.0/ARMTools/bin/../lib/gcc/arm-atollic-eabi/6.3.1/../../../../arm-atollic-eabi/lib/armv7-ar/thumb/fpu/libc_nano.a(lib_a-mprec.o)
                0x0000000018017e30                __lshift
 .text.__mcmp   0x0000000018017ed2       0x34 /opt/Atollic_TrueSTUDIO_for_ARM_x86_64_8.0.0/ARMTools/bin/../lib/gcc/arm-atollic-eabi/6.3.1/../../../../arm-atollic-eabi/lib/armv7-ar/thumb/fpu/libc_nano.a(lib_a-mprec.o)
                0x0000000018017ed2                __mcmp
 .text.__mdiff  0x0000000018017f06       0xc2 /opt/Atollic_TrueSTUDIO_for_ARM_x86_64_8.0.0/ARMTools/bin/../lib/gcc/arm-atollic-eabi/6.3.1/../../../../arm-atollic-eabi/lib/armv7-ar/thumb/fpu/libc_nano.a(lib_a-mprec.o)
                0x0000000018017f06                __mdiff
 .text.__ulp    0x0000000018017fc8       0x4c /opt/Atollic_TrueSTUDIO_for_ARM_x86_64_8.0.0/ARMTools/bin/../lib/gcc/arm-atollic-eabi/6.3.1/../../../../arm-atollic-eabi/lib/armv7-ar/thumb/fpu/libc_nano.a(lib_a-mprec.o)
                0x0000000018017fc8                __ulp
 .text.__b2d    0x0000000018018014       0x9c /opt/Atollic_TrueSTUDIO_for_ARM_x86_64_8.0.0/ARMTools/bin/../lib/gcc/arm-atollic-eabi/6.3.1/../../../../arm-atollic-eabi/lib/armv7-ar/thumb/fpu/libc_nano.a(lib_a-mprec.o)
                0x0000000018018014                __b2d
 .text.__d2b    0x00000000180180b0       0x9e /opt/Atollic_TrueSTUDIO_for_ARM_x86_64_8.0.0/ARMTools/bin/../lib/gcc/arm-atollic-eabi/6.3.1/../../../../arm-atollic-eabi/lib/armv7-ar/thumb/fpu/libc_nano.a(lib_a-mprec.o)
                0x00000000180180b0                __d2b
 .text.__ratio  0x000000001801814e       0x4e /opt/Atollic_TrueSTUDIO_for_ARM_x86_64_8.0.0/ARMTools/bin/../lib/gcc/arm-atollic-eabi/6.3.1/../../../../arm-atollic-eabi/lib/armv7-ar/thumb/fpu/libc_nano.a(lib_a-mprec.o)
                0x000000001801814e                __ratio
 .text.__copybits
                0x000000001801819c       0x34 /opt/Atollic_TrueSTUDIO_for_ARM_x86_64_8.0.0/ARMTools/bin/../lib/gcc/arm-atollic-eabi/6.3.1/../../../../arm-atollic-eabi/lib/armv7-ar/thumb/fpu/libc_nano.a(lib_a-mprec.o)
                0x000000001801819c                __copybits
 .text.__any_on
                0x00000000180181d0       0x42 /opt/Atollic_TrueSTUDIO_for_ARM_x86_64_8.0.0/ARMTools/bin/../lib/gcc/arm-atollic-eabi/6.3.1/../../../../arm-atollic-eabi/lib/armv7-ar/thumb/fpu/libc_nano.a(lib_a-mprec.o)
                0x00000000180181d0                __any_on
 .text._calloc_r
                0x0000000018018212       0x1c /opt/Atollic_TrueSTUDIO_for_ARM_x86_64_8.0.0/ARMTools/bin/../lib/gcc/arm-atollic-eabi/6.3.1/../../../../arm-atollic-eabi/lib/armv7-ar/thumb/fpu/libc_nano.a(lib_a-nano-callocr.o)
                0x0000000018018212                _calloc_r
 .text.__ssputs_r
                0x000000001801822e       0xb6 /opt/Atollic_TrueSTUDIO_for_ARM_x86_64_8.0.0/ARMTools/bin/../lib/gcc/arm-atollic-eabi/6.3.1/../../../../arm-atollic-eabi/lib/armv7-ar/thumb/fpu/libc_nano.a(lib_a-nano-svfprintf.o)
                0x000000001801822e                __ssputs_r
 .text._svfprintf_r
                0x00000000180182e4      0x1e8 /opt/Atollic_TrueSTUDIO_for_ARM_x86_64_8.0.0/ARMTools/bin/../lib/gcc/arm-atollic-eabi/6.3.1/../../../../arm-atollic-eabi/lib/armv7-ar/thumb/fpu/libc_nano.a(lib_a-nano-svfprintf.o)
                0x00000000180182e4                _svfprintf_r
                0x00000000180182e4                _svfiprintf_r
 .text.__ascii_wctomb
                0x00000000180184cc       0x1a /opt/Atollic_TrueSTUDIO_for_ARM_x86_64_8.0.0/ARMTools/bin/../lib/gcc/arm-atollic-eabi/6.3.1/../../../../arm-atollic-eabi/lib/armv7-ar/thumb/fpu/libc_nano.a(lib_a-wctomb_r.o)
                0x00000000180184cc                __ascii_wctomb
 .text.memmove  0x00000000180184e6       0x34 /opt/Atollic_TrueSTUDIO_for_ARM_x86_64_8.0.0/ARMTools/bin/../lib/gcc/arm-atollic-eabi/6.3.1/../../../../arm-atollic-eabi/lib/armv7-ar/thumb/fpu/libc_nano.a(lib_a-memmove.o)
                0x00000000180184e6                memmove
 .text._realloc_r
                0x000000001801851a       0x4c /opt/Atollic_TrueSTUDIO_for_ARM_x86_64_8.0.0/ARMTools/bin/../lib/gcc/arm-atollic-eabi/6.3.1/../../../../arm-atollic-eabi/lib/armv7-ar/thumb/fpu/libc_nano.a(lib_a-nano-reallocr.o)
                0x000000001801851a                _realloc_r
 .text._malloc_usable_size_r
                0x0000000018018566       0x12 /opt/Atollic_TrueSTUDIO_for_ARM_x86_64_8.0.0/ARMTools/bin/../lib/gcc/arm-atollic-eabi/6.3.1/../../../../arm-atollic-eabi/lib/armv7-ar/thumb/fpu/libc_nano.a(lib_a-nano-msizer.o)
                0x0000000018018566                _malloc_usable_size_r
 *(.init)
 *(.fini)
 *crtbegin.o(.ctors)
 *crtbegin?.o(.ctors)
 *(EXCLUDE_FILE(*crtend.o *crtend?.o) .ctors)
 *(SORT(.ctors.*))
 *(.ctors)
 *crtbegin.o(.dtors)
 *crtbegin?.o(.dtors)
 *(EXCLUDE_FILE(*crtend.o *crtend?.o) .dtors)
 *(SORT(.dtors.*))
 *(.dtors)
                0x0000000018018578                Image$$RO_DATA$$Base = .
 *(.rodata*)
 .rodata        0x0000000018018578       0x6a log_output.o
 *fill*         0x00000000180185e2        0x2 
 .rodata        0x00000000180185e4        0x4 tTask_tecsgen.o
                0x00000000180185e4                tTask_INIB_tab
 .rodata        0x00000000180185e8        0x8 tSemaphore_tecsgen.o
                0x00000000180185e8                tSemaphore_INIB_tab
 .rodata        0x00000000180185f0        0x8 tInterruptRequest_tecsgen.o
                0x00000000180185f0                tInterruptRequest_INIB_tab
 .rodata        0x00000000180185f8       0x10 tISR_tecsgen.o
                0x00000000180185f8                tISR_INIB_tab
 .rodata        0x0000000018018608       0x30 tSerialPortMain_tecsgen.o
                0x0000000018018608                tSerialPortMain_eSerialPort_MT_
                0x0000000018018620                tSerialPortMain_INIB_tab
                0x0000000018018630                SerialPort1_SerialPortMain_eSerialPort_des
 .rodata        0x0000000018018638       0x10 tSysLog_tecsgen.o
                0x0000000018018638                tSysLog_SINGLE_CELL_INIB
 .rodata        0x0000000018018648        0x8 tLogTaskMain_tecsgen.o
                0x0000000018018648                tLogTaskMain_SINGLE_CELL_INIB
 .rodata        0x0000000018018650       0x18 tBannerMain_tecsgen.o
                0x0000000018018660                tBannerMain_SINGLE_CELL_INIB
 .rodata        0x0000000018018668       0x20 tSCIF_tecsgen.o
                0x0000000018018668                tSCIF_eiRxISR_MT_
                0x000000001801866c                tSCIF_eiTxISR_MT_
                0x0000000018018670                tSCIF_INIB_tab
                0x0000000018018678                SIOPortTarget1_SCIF_eiRxISR_des
                0x0000000018018680                SIOPortTarget1_SCIF_eiTxISR_des
 .rodata        0x0000000018018688       0x39 tLogTaskMain.o
 *fill*         0x00000000180186c1        0x3 
 .rodata        0x00000000180186c4      0x15b tBannerMain.o
 *fill*         0x000000001801881f        0x1 
 .rodata        0x0000000018018820       0x33 tSCIF.o
 *fill*         0x0000000018018853        0x1 
 .rodata        0x0000000018018854      0xc54 kernel_cfg.o
                0x0000000018018854                _kernel_tmax_tskid
                0x0000000018018858                _kernel_tinib_table
                0x00000000180188a0                _kernel_torder_table
                0x00000000180188ac                _kernel_tmax_semid
                0x00000000180188b0                _kernel_seminib_table
                0x00000000180188c8                _kernel_tmax_flgid
                0x00000000180188cc                _kernel_tmax_dtqid
                0x00000000180188d0                _kernel_tmax_pdqid
                0x00000000180188d4                _kernel_tmax_mtxid
                0x00000000180188d8                _kernel_tmax_mpfid
                0x00000000180188dc                _kernel_tmax_cycid
                0x00000000180188e0                _kernel_tmax_almid
                0x00000000180188e4                _kernel_tnum_cfg_intno
                0x00000000180188e8                _kernel_intinib_table
                0x000000001801890c                _kernel_istksz
                0x0000000018018910                _kernel_istk
                0x0000000018018914                _kernel_istkpt
                0x0000000018018918                _kernel_inh_table
                0x0000000018019244                _kernel_intcfg_table
                0x0000000018019490                _kernel_exc_table
 .rodata._ZTVN4mbed7TimeoutE
                0x00000000180194a8       0x14 libmbed.a(Timeout.o)
                0x00000000180194a8                vtable for mbed::Timeout
 .rodata._ZTVN4mbed10TimerEventE
                0x00000000180194bc       0x14 libmbed.a(TimerEvent.o)
                0x00000000180194bc                vtable for mbed::TimerEvent
 .rodata._ZTVN4mbed6TickerE
                0x00000000180194d0       0x14 libmbed.a(Ticker.o)
                0x00000000180194d0                vtable for mbed::Ticker
 .rodata.PIPC_0_tbl
                0x00000000180194e4      0x420 libmbed.a(pinmap.o)
 .rodata.us_interface
                0x0000000018019904       0x14 libmbed.a(us_ticker_api.o)
 .rodata.us_data
                0x0000000018019918        0x8 libmbed.a(us_ticker_api.o)
 .rodata        0x0000000018019920        0x4 ./libkernel.a(target_kernel_impl.o)
                0x0000000018019920                _kernel_arm_tnum_memory_area
 .rodata        0x0000000018019924       0x77 ./libkernel.a(chip_kernel_impl.o)
 *fill*         0x000000001801999b        0x1 
 .rodata        0x000000001801999c      0x22a ./libkernel.a(core_kernel_impl.o)
 *fill*         0x0000000018019bc6        0x2 
 .rodata        0x0000000018019bc8       0x7b ./libkernel.a(task.o)
 *fill*         0x0000000018019c43        0x1 
 .rodata        0x0000000018019c44       0x42 ./libkernel.a(time_event.o)
 *fill*         0x0000000018019c86        0x2 
 .rodata        0x0000000018019c88       0x38 ./libkernel.a(task_sync.o)
 .rodata        0x0000000018019cc0       0x57 ./libkernel.a(semaphore.o)
 *fill*         0x0000000018019d17        0x1 
 .rodata        0x0000000018019d18       0xc1 ./libkernel.a(wait.o)
 *fill*         0x0000000018019dd9        0x3 
 .rodata.__sf_fake_stderr
                0x0000000018019ddc       0x20 /opt/Atollic_TrueSTUDIO_for_ARM_x86_64_8.0.0/ARMTools/bin/../lib/gcc/arm-atollic-eabi/6.3.1/../../../../arm-atollic-eabi/lib/armv7-ar/thumb/fpu/libc_nano.a(lib_a-findfp.o)
                0x0000000018019ddc                __sf_fake_stderr
 .rodata.__sf_fake_stdin
                0x0000000018019dfc       0x20 /opt/Atollic_TrueSTUDIO_for_ARM_x86_64_8.0.0/ARMTools/bin/../lib/gcc/arm-atollic-eabi/6.3.1/../../../../arm-atollic-eabi/lib/armv7-ar/thumb/fpu/libc_nano.a(lib_a-findfp.o)
                0x0000000018019dfc                __sf_fake_stdin
 .rodata.__sf_fake_stdout
                0x0000000018019e1c       0x20 /opt/Atollic_TrueSTUDIO_for_ARM_x86_64_8.0.0/ARMTools/bin/../lib/gcc/arm-atollic-eabi/6.3.1/../../../../arm-atollic-eabi/lib/armv7-ar/thumb/fpu/libc_nano.a(lib_a-findfp.o)
                0x0000000018019e1c                __sf_fake_stdout
 .rodata._global_impure_ptr
                0x0000000018019e3c        0x4 /opt/Atollic_TrueSTUDIO_for_ARM_x86_64_8.0.0/ARMTools/bin/../lib/gcc/arm-atollic-eabi/6.3.1/../../../../arm-atollic-eabi/lib/armv7-ar/thumb/fpu/libc_nano.a(lib_a-impure.o)
                0x0000000018019e3c                _global_impure_ptr
 .rodata._printf_float.str1.1
                0x0000000018019e40       0x12 /opt/Atollic_TrueSTUDIO_for_ARM_x86_64_8.0.0/ARMTools/bin/../lib/gcc/arm-atollic-eabi/6.3.1/../../../../arm-atollic-eabi/lib/armv7-ar/thumb/fpu/libc_nano.a(lib_a-nano-vfprintf_float.o)
 .rodata._printf_i.str1.1
                0x0000000018019e52       0x22 /opt/Atollic_TrueSTUDIO_for_ARM_x86_64_8.0.0/ARMTools/bin/../lib/gcc/arm-atollic-eabi/6.3.1/../../../../arm-atollic-eabi/lib/armv7-ar/thumb/fpu/libc_nano.a(lib_a-nano-vfprintf_i.o)
 .rodata._scanf_float.str1.1
                0x0000000018019e74        0x5 /opt/Atollic_TrueSTUDIO_for_ARM_x86_64_8.0.0/ARMTools/bin/../lib/gcc/arm-atollic-eabi/6.3.1/../../../../arm-atollic-eabi/lib/armv7-ar/thumb/fpu/libc_nano.a(lib_a-nano-vfscanf_float.o)
 .rodata._strtod_l.str1.1
                0x0000000018019e79        0x5 /opt/Atollic_TrueSTUDIO_for_ARM_x86_64_8.0.0/ARMTools/bin/../lib/gcc/arm-atollic-eabi/6.3.1/../../../../arm-atollic-eabi/lib/armv7-ar/thumb/fpu/libc_nano.a(lib_a-strtod.o)
                                          0xc (size before relaxing)
 *fill*         0x0000000018019e79        0x3 
 .rodata.fpi.7257
                0x0000000018019e7c       0x14 /opt/Atollic_TrueSTUDIO_for_ARM_x86_64_8.0.0/ARMTools/bin/../lib/gcc/arm-atollic-eabi/6.3.1/../../../../arm-atollic-eabi/lib/armv7-ar/thumb/fpu/libc_nano.a(lib_a-strtod.o)
 .rodata.fpinan.7293
                0x0000000018019e90       0x14 /opt/Atollic_TrueSTUDIO_for_ARM_x86_64_8.0.0/ARMTools/bin/../lib/gcc/arm-atollic-eabi/6.3.1/../../../../arm-atollic-eabi/lib/armv7-ar/thumb/fpu/libc_nano.a(lib_a-strtod.o)
 *fill*         0x0000000018019ea4        0x4 
 .rodata.tinytens
                0x0000000018019ea8       0x28 /opt/Atollic_TrueSTUDIO_for_ARM_x86_64_8.0.0/ARMTools/bin/../lib/gcc/arm-atollic-eabi/6.3.1/../../../../arm-atollic-eabi/lib/armv7-ar/thumb/fpu/libc_nano.a(lib_a-strtod.o)
 .rodata._dtoa_r.str1.1
                0x0000000018019ed0        0xd /opt/Atollic_TrueSTUDIO_for_ARM_x86_64_8.0.0/ARMTools/bin/../lib/gcc/arm-atollic-eabi/6.3.1/../../../../arm-atollic-eabi/lib/armv7-ar/thumb/fpu/libc_nano.a(lib_a-dtoa.o)
                                          0xf (size before relaxing)
 .rodata._setlocale_r.str1.1
                0x0000000018019edd        0x8 /opt/Atollic_TrueSTUDIO_for_ARM_x86_64_8.0.0/ARMTools/bin/../lib/gcc/arm-atollic-eabi/6.3.1/../../../../arm-atollic-eabi/lib/armv7-ar/thumb/fpu/libc_nano.a(lib_a-locale.o)
                                          0x9 (size before relaxing)
 .rodata.str1.1
                0x0000000018019ee5        0x2 /opt/Atollic_TrueSTUDIO_for_ARM_x86_64_8.0.0/ARMTools/bin/../lib/gcc/arm-atollic-eabi/6.3.1/../../../../arm-atollic-eabi/lib/armv7-ar/thumb/fpu/libc_nano.a(lib_a-locale.o)
 *fill*         0x0000000018019ee7        0x1 
 .rodata.__mprec_bigtens
                0x0000000018019ee8       0x28 /opt/Atollic_TrueSTUDIO_for_ARM_x86_64_8.0.0/ARMTools/bin/../lib/gcc/arm-atollic-eabi/6.3.1/../../../../arm-atollic-eabi/lib/armv7-ar/thumb/fpu/libc_nano.a(lib_a-mprec.o)
                0x0000000018019ee8                __mprec_bigtens
 .rodata.__mprec_tens
                0x0000000018019f10       0xc8 /opt/Atollic_TrueSTUDIO_for_ARM_x86_64_8.0.0/ARMTools/bin/../lib/gcc/arm-atollic-eabi/6.3.1/../../../../arm-atollic-eabi/lib/armv7-ar/thumb/fpu/libc_nano.a(lib_a-mprec.o)
                0x0000000018019f10                __mprec_tens
 .rodata.p05.7175
                0x0000000018019fd8        0xc /opt/Atollic_TrueSTUDIO_for_ARM_x86_64_8.0.0/ARMTools/bin/../lib/gcc/arm-atollic-eabi/6.3.1/../../../../arm-atollic-eabi/lib/armv7-ar/thumb/fpu/libc_nano.a(lib_a-mprec.o)
 .rodata._svfprintf_r.str1.1
                0x0000000018019fe4       0x11 /opt/Atollic_TrueSTUDIO_for_ARM_x86_64_8.0.0/ARMTools/bin/../lib/gcc/arm-atollic-eabi/6.3.1/../../../../arm-atollic-eabi/lib/armv7-ar/thumb/fpu/libc_nano.a(lib_a-nano-svfprintf.o)
 .rodata._ctype_
                0x0000000018019ff5      0x101 /opt/Atollic_TrueSTUDIO_for_ARM_x86_64_8.0.0/ARMTools/bin/../lib/gcc/arm-atollic-eabi/6.3.1/../../../../arm-atollic-eabi/lib/armv7-ar/thumb/fpu/libc_nano.a(lib_a-ctype_.o)
                0x0000000018019ff5                _ctype_
                0x000000001801a0f6                Image$$RO_DATA$$Limit = .
 *(.eh_frame*)

.glue_7         0x000000001801a0f8        0x0
 .glue_7        0x000000001801a0f8        0x0 linker stubs

.glue_7t        0x000000001801a0f8        0x0
 .glue_7t       0x000000001801a0f8        0x0 linker stubs

.vfp11_veneer   0x000000001801a0f8        0x0
 .vfp11_veneer  0x000000001801a0f8        0x0 linker stubs

.v4_bx          0x000000001801a0f8        0x0
 .v4_bx         0x000000001801a0f8        0x0 linker stubs

.iplt           0x000000001801a0f8        0x0
 .iplt          0x000000001801a0f8        0x0 start.o

.rel.dyn        0x000000001801a0f8        0x0
 .rel.iplt      0x000000001801a0f8        0x0 start.o

.ARM.extab
 *(.ARM.extab* .gnu.linkonce.armextab.*)
                0x000000001801a0f8                __exidx_start = .

.ARM.exidx
 *(.ARM.exidx* .gnu.linkonce.armexidx.*)
                0x000000001801a0f8                __exidx_end = .

.copy.table     0x000000001801a0f6       0x1a
                0x000000001801a0f8                . = ALIGN (0x4)
 *fill*         0x000000001801a0f6        0x2 
                0x000000001801a0f8                __copy_table_start__ = .
                0x000000001801a0f8        0x4 LONG 0x1801a120 __etext
                0x000000001801a0fc        0x4 LONG 0x20020000 __data_start__
                0x000000001801a100        0x4 LONG 0x220 (__data_end__ - __data_start__)
                0x000000001801a104        0x4 LONG 0x1801a340 __etext2
                0x000000001801a108        0x4 LONG 0x20900000 __nc_data_start
                0x000000001801a10c        0x4 LONG 0x0 (__nc_data_end - __nc_data_start)
                0x000000001801a110                __copy_table_end__ = .

.zero.table     0x000000001801a110       0x10
                0x000000001801a110                . = ALIGN (0x4)
                0x000000001801a110                __zero_table_start__ = .
                0x000000001801a110        0x4 LONG 0x20020400 __bss_start__
                0x000000001801a114        0x4 LONG 0x83bc (__bss_end__ - __bss_start__)
                0x000000001801a118        0x4 LONG 0x20900000 __nc_bss_start
                0x000000001801a11c        0x4 LONG 0x0 (__nc_bss_end - __nc_bss_start)
                0x000000001801a120                __zero_table_end__ = .
                0x000000001801a120                __etext = .

.ttb            0x0000000020000000     0x4000
                0x0000000020000000                Image$$TTB$$ZI$$Base = .
                0x0000000020004000                . = (. + 0x4000)
 *fill*         0x0000000020000000     0x4000 
                0x0000000020004000                Image$$TTB$$ZI$$Limit = .

.data           0x0000000020020000      0x220 load address 0x000000001801a120
                0x0000000020020000                Image$$RW_DATA$$Base = .
                0x0000000020020000                __data_start__ = .
 *(vtable)
 *(.data*)
 .data.IRQCount
                0x0000000020020000        0x4 libmbed.a(system_MBRZA1H.o)
                0x0000000020020000                IRQCount
 .data._ZZ5_sbrkE4heap
                0x0000000020020004        0x4 libmbed.a(retarget.o)
 .data.gpio_multi_guard
                0x0000000020020008        0x2 libmbed.a(pinmap.o)
                0x0000000020020008                gpio_multi_guard
 *fill*         0x000000002002000a        0x2 
 .data          0x000000002002000c       0x40 ./libkernel.a(target_kernel_impl.o)
                0x000000002002000c                _kernel_arm_memory_area
 .data._impure_ptr
                0x000000002002004c        0x4 /opt/Atollic_TrueSTUDIO_for_ARM_x86_64_8.0.0/ARMTools/bin/../lib/gcc/arm-atollic-eabi/6.3.1/../../../../arm-atollic-eabi/lib/armv7-ar/thumb/fpu/libc_nano.a(lib_a-impure.o)
                0x000000002002004c                _impure_ptr
 .data.impure_data
                0x0000000020020050       0x60 /opt/Atollic_TrueSTUDIO_for_ARM_x86_64_8.0.0/ARMTools/bin/../lib/gcc/arm-atollic-eabi/6.3.1/../../../../arm-atollic-eabi/lib/armv7-ar/thumb/fpu/libc_nano.a(lib_a-impure.o)
 .data.__global_locale
                0x00000000200200b0      0x16c /opt/Atollic_TrueSTUDIO_for_ARM_x86_64_8.0.0/ARMTools/bin/../lib/gcc/arm-atollic-eabi/6.3.1/../../../../arm-atollic-eabi/lib/armv7-ar/thumb/fpu/libc_nano.a(lib_a-locale.o)
                0x00000000200200b0                __global_locale
                0x000000002002021c                Image$$RW_DATA$$Limit = .
                0x000000002002021c                . = ALIGN (0x4)
                0x000000002002021c                PROVIDE (__preinit_array_start, .)
 *(.preinit_array)
                0x000000002002021c                PROVIDE (__preinit_array_end, .)
                0x000000002002021c                . = ALIGN (0x4)
                0x000000002002021c                PROVIDE (__init_array_start, .)
 *(SORT(.init_array.*))
 *(.init_array)
 .init_array    0x000000002002021c        0x4 blinky.o
                0x0000000020020220                PROVIDE (__init_array_end, .)
                0x0000000020020220                . = ALIGN (0x4)
                [!provide]                        PROVIDE (__fini_array_start, .)
 *(SORT(.fini_array.*))
 *(.fini_array)
                [!provide]                        PROVIDE (__fini_array_end, .)
                0x0000000020020220                . = ALIGN (0x4)
                0x0000000020020220                __data_end__ = .

.igot.plt       0x0000000020020220        0x0 load address 0x000000001801a340
 .igot.plt      0x0000000020020220        0x0 start.o

.bss            0x0000000020020400     0x83bc load address 0x000000001801a520
                0x0000000020020400                Image$$ZI_DATA$$Base = .
                0x0000000020020400                __bss_start__ = .
 *(.bss*)
 .bss._ZL7flipper
                0x0000000020020400       0x30 blinky.o
 .bss._ZL4ledu  0x0000000020020430       0x18 blinky.o
 .bss._ZL4ledr  0x0000000020020448       0x84 blinky.o
 .bss._ZL4ledg  0x00000000200204cc       0x84 blinky.o
 .bss._ZL4ledb  0x0000000020020550       0x84 blinky.o
 .bss._ZL8syscnt_u
                0x00000000200205d4        0x4 blinky.o
 .bss._ZL8syscnt_r
                0x00000000200205d8        0x4 blinky.o
 .bss._ZL8syscnt_g
                0x00000000200205dc        0x4 blinky.o
 .bss._ZL8syscnt_b
                0x00000000200205e0        0x4 blinky.o
 .bss._ZL8flg_ledu
                0x00000000200205e4        0x4 blinky.o
 .bss._ZL8flg_ledr
                0x00000000200205e8        0x4 blinky.o
 .bss._ZL8flg_ledg
                0x00000000200205ec        0x4 blinky.o
 .bss._ZL8flg_ledb
                0x00000000200205f0        0x4 blinky.o
 *fill*         0x00000000200205f4        0x4 
 .bss           0x00000000200205f8     0x3800 kernel_cfg.o
 .bss.Sect_Normal
                0x0000000020023df8        0x4 libmbed.a(mmu_Renesas_RZ_A1.o)
 .bss.Sect_Normal_NC
                0x0000000020023dfc        0x4 libmbed.a(mmu_Renesas_RZ_A1.o)
 .bss.Sect_Normal_Cod
                0x0000000020023e00        0x4 libmbed.a(mmu_Renesas_RZ_A1.o)
 .bss.Sect_Normal_RO
                0x0000000020023e04        0x4 libmbed.a(mmu_Renesas_RZ_A1.o)
 .bss.Sect_Normal_RW
                0x0000000020023e08        0x4 libmbed.a(mmu_Renesas_RZ_A1.o)
 .bss.Sect_Device_RO
                0x0000000020023e0c        0x4 libmbed.a(mmu_Renesas_RZ_A1.o)
 .bss.Sect_Device_RW
                0x0000000020023e10        0x4 libmbed.a(mmu_Renesas_RZ_A1.o)
 .bss.Page_L1_4k
                0x0000000020023e14        0x4 libmbed.a(mmu_Renesas_RZ_A1.o)
 .bss.Page_L1_64k
                0x0000000020023e18        0x4 libmbed.a(mmu_Renesas_RZ_A1.o)
 .bss.Page_4k_Device_RW
                0x0000000020023e1c        0x4 libmbed.a(mmu_Renesas_RZ_A1.o)
 .bss.Page_64k_Device_RW
                0x0000000020023e20        0x4 libmbed.a(mmu_Renesas_RZ_A1.o)
 .bss.__dso_handle
                0x0000000020023e24        0x4 libmbed.a(common.o)
                0x0000000020023e24                __dso_handle
 .bss.events    0x0000000020023e28        0x8 libmbed.a(us_ticker_api.o)
 .bss.us_ticker_inited
                0x0000000020023e30        0x4 libmbed.a(us_ticker.o)
                0x0000000020023e30                us_ticker_inited
 *fill*         0x0000000020023e34        0x4 
 .bss.count_clock
                0x0000000020023e38        0x8 libmbed.a(us_ticker.o)
 .bss.last_read
                0x0000000020023e40        0x4 libmbed.a(us_ticker.o)
 .bss.wrap_arround
                0x0000000020023e44        0x4 libmbed.a(us_ticker.o)
 .bss.ticker_us_last64
                0x0000000020023e48        0x8 libmbed.a(us_ticker.o)
 *fill*         0x0000000020023e50      0x1b0 
 .bss           0x0000000020024000     0x4000 ./libkernel.a(core_kernel_impl.o)
 .bss           0x0000000020028000        0x4 ./libkernel.a(startup.o)
                0x0000000020028000                _kernel_kerflg
 .bss           0x0000000020028004        0xc ./libkernel.a(taskhook.o)
                0x0000000020028004                _kernel_mtxhook_check_ceilpri
                0x0000000020028008                _kernel_mtxhook_scan_ceilmtx
                0x000000002002800c                _kernel_mtxhook_release_all
 .bss.__malloc_free_list
                0x0000000020028010        0x4 /opt/Atollic_TrueSTUDIO_for_ARM_x86_64_8.0.0/ARMTools/bin/../lib/gcc/arm-atollic-eabi/6.3.1/../../../../arm-atollic-eabi/lib/armv7-ar/thumb/fpu/libc_nano.a(lib_a-nano-mallocr.o)
                0x0000000020028010                __malloc_free_list
 .bss.__malloc_sbrk_start
                0x0000000020028014        0x4 /opt/Atollic_TrueSTUDIO_for_ARM_x86_64_8.0.0/ARMTools/bin/../lib/gcc/arm-atollic-eabi/6.3.1/../../../../arm-atollic-eabi/lib/armv7-ar/thumb/fpu/libc_nano.a(lib_a-nano-mallocr.o)
                0x0000000020028014                __malloc_sbrk_start
 *(COMMON)
 COMMON         0x0000000020028018      0x234 tSerialPortMain_tecsgen.o
                0x0000000020028018                tSerialPortMain_SerialPort1_SerialPortMain_CB_receiveBuffer_INIT
                0x0000000020028118                tSerialPortMain_SerialPort1_SerialPortMain_CB_sendBuffer_INIT
                0x0000000020028218                tSerialPortMain_CB_tab
 COMMON         0x000000002002824c      0x41c tSysLog_tecsgen.o
                0x000000002002824c                tSysLog_SINGLE_CELL_CB
                0x0000000020028268                tSysLog_SINGLE_CELL_CB_logBuffer_INIT
 COMMON         0x0000000020028668        0x8 tSCIF_tecsgen.o
                0x0000000020028668                tSCIF_CB_tab
 COMMON         0x0000000020028670       0x90 kernel_cfg.o
                0x0000000020028670                _kernel_cyccb_table
                0x0000000020028670                _kernel_pdqinib_table
                0x0000000020028670                _kernel_mtxcb_table
                0x0000000020028670                _kernel_pdqcb_table
                0x0000000020028670                _kernel_dtqinib_table
                0x0000000020028670                _kernel_dtqcb_table
                0x0000000020028670                _kernel_semcb_table
                0x0000000020028690                _kernel_alminib_table
                0x0000000020028690                _kernel_flginib_table
                0x0000000020028690                _kernel_tmevt_heap
                0x00000000200286a0                _kernel_almcb_table
                0x00000000200286a0                _kernel_mtxinib_table
                0x00000000200286a0                _kernel_cycinib_table
                0x00000000200286a0                _kernel_mpfcb_table
                0x00000000200286a0                _kernel_tcb_table
                0x0000000020028700                _kernel_mpfinib_table
                0x0000000020028700                _kernel_flgcb_table
 COMMON         0x0000000020028700        0x4 ./libkernel.a(core_kernel_impl.o)
                0x0000000020028700                _kernel_excpt_nest_count
 COMMON         0x0000000020028704       0x94 ./libkernel.a(task.o)
                0x0000000020028704                _kernel_p_schedtsk
                0x0000000020028708                _kernel_ready_queue
                0x0000000020028788                _kernel_dspflg
                0x000000002002878c                _kernel_ready_primap
                0x0000000020028790                _kernel_p_runtsk
                0x0000000020028794                _kernel_enadsp
 COMMON         0x0000000020028798       0x20 ./libkernel.a(time_event.o)
                0x0000000020028798                _kernel_monotonic_evttim
                0x000000002002879c                _kernel_in_signal_time
                0x00000000200287a0                _kernel_boundary_evttim
                0x00000000200287a4                _kernel_current_evttim
                0x00000000200287a8                _kernel_current_hrtcnt
                0x00000000200287b0                _kernel_systim_offset
 COMMON         0x00000000200287b8        0x4 /opt/Atollic_TrueSTUDIO_for_ARM_x86_64_8.0.0/ARMTools/bin/../lib/gcc/arm-atollic-eabi/6.3.1/../../../../arm-atollic-eabi/lib/armv7-ar/thumb/fpu/libc_nano.a(lib_a-reent.o)
                0x00000000200287b8                errno
                0x00000000200287bc                __bss_end__ = .
                0x00000000200287bc                Image$$ZI_DATA$$Limit = .

.heap           0x00000000200287c0    0x80000
                0x00000000200287c0                __end__ = .
                0x00000000200287c0                end = __end__
 *(.heap*)
 .heap          0x00000000200287c0    0x80000 libmbed.a(startup_RZ1AH.o)
                0x00000000200287c0                __HeapBase
                0x00000000200a87c0                __HeapLimit = .

.stack_dummy    0x00000000200287c0    0x14300
 *(.stack)
 .stack         0x00000000200287c0    0x14300 libmbed.a(startup_RZ1AH.o)
                0x000000001801a340                __etext2 = (__etext + SIZEOF (.data))

.nc_data        0x0000000020900000        0x0 load address 0x000000001801a340
                0x0000000020900000                Image$$RW_DATA_NC$$Base = .
                0x0000000020900000                __nc_data_start = .
 *(NC_DATA)
                0x0000000020900000                . = ALIGN (0x4)
                0x0000000020900000                __nc_data_end = .
                0x0000000020900000                Image$$RW_DATA_NC$$Limit = .

.nc_bss         0x0000000020900000        0x0
                0x0000000020900000                Image$$ZI_DATA_NC$$Base = .
                0x0000000020900000                __nc_bss_start = .
 *(NC_BSS)
                0x0000000020900000                . = ALIGN (0x4)
                0x0000000020900000                __nc_bss_end = .
                0x0000000020900000                Image$$ZI_DATA_NC$$Limit = .
                0x0000000020720000                __StackTop = (ORIGIN (RAM) + LENGTH (RAM))
                0x000000002070bd00                __StackLimit = (__StackTop - SIZEOF (.stack_dummy))
                [!provide]                        PROVIDE (__stack, __StackTop)
                0x0000000000000001                ASSERT ((__StackLimit >= __HeapLimit), region RAM overflowed with stack)
OUTPUT(asp.elf elf32-littlearm)

.ARM.attributes
                0x0000000000000000       0x39
 .ARM.attributes
                0x0000000000000000       0x29 start.o
 .ARM.attributes
                0x0000000000000029       0x3d log_output.o
 .ARM.attributes
                0x0000000000000066       0x3b blinky.o
 .ARM.attributes
                0x00000000000000a1       0x3d sf_boot.o
 .ARM.attributes
                0x00000000000000de       0x3d tTask_tecsgen.o
 .ARM.attributes
                0x000000000000011b       0x3d tSemaphore_tecsgen.o
 .ARM.attributes
                0x0000000000000158       0x3d tInterruptRequest_tecsgen.o
 .ARM.attributes
                0x0000000000000195       0x3d tISR_tecsgen.o
 .ARM.attributes
                0x00000000000001d2       0x3d tInitializeRoutine_tecsgen.o
 .ARM.attributes
                0x000000000000020f       0x3d tTerminateRoutine_tecsgen.o
 .ARM.attributes
                0x000000000000024c       0x3d tSerialPortMain_tecsgen.o
 .ARM.attributes
                0x0000000000000289       0x3d tSerialAdapter_tecsgen.o
 .ARM.attributes
                0x00000000000002c6       0x3d tSysLog_tecsgen.o
 .ARM.attributes
                0x0000000000000303       0x3d tSysLogAdapter_tecsgen.o
 .ARM.attributes
                0x0000000000000340       0x3d tLogTaskMain_tecsgen.o
 .ARM.attributes
                0x000000000000037d       0x3d tBannerMain_tecsgen.o
 .ARM.attributes
                0x00000000000003ba       0x3d tPutLogGRPeach_tecsgen.o
 .ARM.attributes
                0x00000000000003f7       0x3d tSCIF_tecsgen.o
 .ARM.attributes
                0x0000000000000434       0x3d tSIOPortGRPeachMain_tecsgen.o
 .ARM.attributes
                0x0000000000000471       0x3d tTask.o
 .ARM.attributes
                0x00000000000004ae       0x3d tISR.o
 .ARM.attributes
                0x00000000000004eb       0x3d tInitializeRoutine.o
 .ARM.attributes
                0x0000000000000528       0x3d tTerminateRoutine.o
 .ARM.attributes
                0x0000000000000565       0x3d tSerialPortMain.o
 .ARM.attributes
                0x00000000000005a2       0x3d tSysLog.o
 .ARM.attributes
                0x00000000000005df       0x3d tSysLogAdapter.o
 .ARM.attributes
                0x000000000000061c       0x3d tLogTaskMain.o
 .ARM.attributes
                0x0000000000000659       0x3d tBannerMain.o
 .ARM.attributes
                0x0000000000000696       0x3d tPutLogGRPeach.o
 .ARM.attributes
                0x00000000000006d3       0x3d tSCIF.o
 .ARM.attributes
                0x0000000000000710       0x3d init_tecs.o
 .ARM.attributes
                0x000000000000074d       0x3d kernel_cfg.o
 .ARM.attributes
                0x000000000000078a       0x29 libmbed.a(startup_RZ1AH.o)
 .ARM.attributes
                0x00000000000007b3       0x3b libmbed.a(RZ_A1_Init.o)
 .ARM.attributes
                0x00000000000007ee       0x3b libmbed.a(mmu_Renesas_RZ_A1.o)
 .ARM.attributes
                0x0000000000000829       0x3b libmbed.a(system_MBRZA1H.o)
 .ARM.attributes
                0x0000000000000864       0x3b libmbed.a(gpio.o)
 .ARM.attributes
                0x000000000000089f       0x3b libmbed.a(common.o)
 .ARM.attributes
                0x00000000000008da       0x3b libmbed.a(Timeout.o)
 .ARM.attributes
                0x0000000000000915       0x3b libmbed.a(TimerEvent.o)
 .ARM.attributes
                0x0000000000000950       0x3b libmbed.a(retarget.o)
 .ARM.attributes
                0x000000000000098b       0x3b libmbed.a(Ticker.o)
 .ARM.attributes
                0x00000000000009c6       0x3b libmbed.a(SoftPWM.o)
 .ARM.attributes
                0x0000000000000a01       0x29 libmbed.a(cache.o)
 .ARM.attributes
                0x0000000000000a2a       0x3b libmbed.a(gic.o)
 .ARM.attributes
                0x0000000000000a65       0x3b libmbed.a(pl310.o)
 .ARM.attributes
                0x0000000000000aa0       0x3b libmbed.a(gpio_api.o)
 .ARM.attributes
                0x0000000000000adb       0x3b libmbed.a(pinmap.o)
 .ARM.attributes
                0x0000000000000b16       0x3b libmbed.a(board.o)
 .ARM.attributes
                0x0000000000000b51       0x3b libmbed.a(us_ticker_api.o)
 .ARM.attributes
                0x0000000000000b8c       0x3b libmbed.a(wait_api.o)
 .ARM.attributes
                0x0000000000000bc7       0x3b libmbed.a(ticker_api.o)
 .ARM.attributes
                0x0000000000000c02       0x3b libmbed.a(us_ticker.o)
 .ARM.attributes
                0x0000000000000c3d       0x29 ./libkernel.a(target_support.o)
 .ARM.attributes
                0x0000000000000c66       0x29 ./libkernel.a(core_support.o)
 .ARM.attributes
                0x0000000000000c8f       0x3d ./libkernel.a(target_kernel_impl.o)
 .ARM.attributes
                0x0000000000000ccc       0x3d ./libkernel.a(chip_kernel_impl.o)
 .ARM.attributes
                0x0000000000000d09       0x3d ./libkernel.a(gic_kernel_impl.o)
 .ARM.attributes
                0x0000000000000d46       0x3d ./libkernel.a(chip_timer.o)
 .ARM.attributes
                0x0000000000000d83       0x3d ./libkernel.a(core_kernel_impl.o)
 .ARM.attributes
                0x0000000000000dc0       0x3d ./libkernel.a(arm.o)
 .ARM.attributes
                0x0000000000000dfd       0x3d ./libkernel.a(startup.o)
 .ARM.attributes
                0x0000000000000e3a       0x3d ./libkernel.a(task.o)
 .ARM.attributes
                0x0000000000000e77       0x3d ./libkernel.a(taskhook.o)
 .ARM.attributes
                0x0000000000000eb4       0x3d ./libkernel.a(time_event.o)
 .ARM.attributes
                0x0000000000000ef1       0x3d ./libkernel.a(task_sync.o)
 .ARM.attributes
                0x0000000000000f2e       0x3d ./libkernel.a(task_term.o)
 .ARM.attributes
                0x0000000000000f6b       0x3d ./libkernel.a(semaphore.o)
 .ARM.attributes
                0x0000000000000fa8       0x3d ./libkernel.a(sys_manage.o)
 .ARM.attributes
                0x0000000000000fe5       0x3d ./libkernel.a(interrupt.o)
 .ARM.attributes
                0x0000000000001022       0x29 ./libkernel.a(gic_support.o)
 .ARM.attributes
                0x000000000000104b       0x3d ./libkernel.a(wait.o)
 .ARM.attributes
                0x0000000000001088       0x1b /opt/Atollic_TrueSTUDIO_for_ARM_x86_64_8.0.0/ARMTools/bin/../lib/gcc/arm-atollic-eabi/6.3.1/armv7-ar/thumb/fpu/libgcc.a(_udivsi3.o)
 .ARM.attributes
                0x00000000000010a3       0x1b /opt/Atollic_TrueSTUDIO_for_ARM_x86_64_8.0.0/ARMTools/bin/../lib/gcc/arm-atollic-eabi/6.3.1/armv7-ar/thumb/fpu/libgcc.a(_divsi3.o)
 .ARM.attributes
                0x00000000000010be       0x1b /opt/Atollic_TrueSTUDIO_for_ARM_x86_64_8.0.0/ARMTools/bin/../lib/gcc/arm-atollic-eabi/6.3.1/armv7-ar/thumb/fpu/libgcc.a(_dvmd_tls.o)
 .ARM.attributes
                0x00000000000010d9       0x1b /opt/Atollic_TrueSTUDIO_for_ARM_x86_64_8.0.0/ARMTools/bin/../lib/gcc/arm-atollic-eabi/6.3.1/armv7-ar/thumb/fpu/libgcc.a(_arm_addsubdf3.o)
 .ARM.attributes
                0x00000000000010f4       0x2d /opt/Atollic_TrueSTUDIO_for_ARM_x86_64_8.0.0/ARMTools/bin/../lib/gcc/arm-atollic-eabi/6.3.1/armv7-ar/thumb/fpu/libgcc.a(_fixunsdfdi.o)
 .ARM.attributes
                0x0000000000001121       0x2d /opt/Atollic_TrueSTUDIO_for_ARM_x86_64_8.0.0/ARMTools/bin/../lib/gcc/arm-atollic-eabi/6.3.1/../../../../arm-atollic-eabi/lib/armv7-ar/thumb/fpu/libstdc++_nano.a(del_op.o)
 .ARM.attributes
                0x000000000000114e       0x2d /opt/Atollic_TrueSTUDIO_for_ARM_x86_64_8.0.0/ARMTools/bin/../lib/gcc/arm-atollic-eabi/6.3.1/../../../../arm-atollic-eabi/lib/armv7-ar/thumb/fpu/libstdc++_nano.a(atexit_arm.o)
 .ARM.attributes
                0x000000000000117b       0x2d /opt/Atollic_TrueSTUDIO_for_ARM_x86_64_8.0.0/ARMTools/bin/../lib/gcc/arm-atollic-eabi/6.3.1/../../../../arm-atollic-eabi/lib/armv7-ar/thumb/fpu/libc_nano.a(lib_a-cxa_atexit.o)
 .ARM.attributes
                0x00000000000011a8       0x2d /opt/Atollic_TrueSTUDIO_for_ARM_x86_64_8.0.0/ARMTools/bin/../lib/gcc/arm-atollic-eabi/6.3.1/../../../../arm-atollic-eabi/lib/armv7-ar/thumb/fpu/libc_nano.a(lib_a-exit.o)
 .ARM.attributes
                0x00000000000011d5       0x2d /opt/Atollic_TrueSTUDIO_for_ARM_x86_64_8.0.0/ARMTools/bin/../lib/gcc/arm-atollic-eabi/6.3.1/../../../../arm-atollic-eabi/lib/armv7-ar/thumb/fpu/libc_nano.a(lib_a-findfp.o)
 .ARM.attributes
                0x0000000000001202       0x2d /opt/Atollic_TrueSTUDIO_for_ARM_x86_64_8.0.0/ARMTools/bin/../lib/gcc/arm-atollic-eabi/6.3.1/../../../../arm-atollic-eabi/lib/armv7-ar/thumb/fpu/libc_nano.a(lib_a-impure.o)
 .ARM.attributes
                0x000000000000122f       0x2d /opt/Atollic_TrueSTUDIO_for_ARM_x86_64_8.0.0/ARMTools/bin/../lib/gcc/arm-atollic-eabi/6.3.1/../../../../arm-atollic-eabi/lib/armv7-ar/thumb/fpu/libc_nano.a(lib_a-malloc.o)
 .ARM.attributes
                0x000000000000125c       0x2d /opt/Atollic_TrueSTUDIO_for_ARM_x86_64_8.0.0/ARMTools/bin/../lib/gcc/arm-atollic-eabi/6.3.1/../../../../arm-atollic-eabi/lib/armv7-ar/thumb/fpu/libc_nano.a(lib_a-memchr-stub.o)
 .ARM.attributes
                0x0000000000001289       0x2d /opt/Atollic_TrueSTUDIO_for_ARM_x86_64_8.0.0/ARMTools/bin/../lib/gcc/arm-atollic-eabi/6.3.1/../../../../arm-atollic-eabi/lib/armv7-ar/thumb/fpu/libc_nano.a(lib_a-memcpy-stub.o)
 .ARM.attributes
                0x00000000000012b6       0x2d /opt/Atollic_TrueSTUDIO_for_ARM_x86_64_8.0.0/ARMTools/bin/../lib/gcc/arm-atollic-eabi/6.3.1/../../../../arm-atollic-eabi/lib/armv7-ar/thumb/fpu/libc_nano.a(lib_a-memset.o)
 .ARM.attributes
                0x00000000000012e3       0x2d /opt/Atollic_TrueSTUDIO_for_ARM_x86_64_8.0.0/ARMTools/bin/../lib/gcc/arm-atollic-eabi/6.3.1/../../../../arm-atollic-eabi/lib/armv7-ar/thumb/fpu/libc_nano.a(lib_a-nano-freer.o)
 .ARM.attributes
                0x0000000000001310       0x2d /opt/Atollic_TrueSTUDIO_for_ARM_x86_64_8.0.0/ARMTools/bin/../lib/gcc/arm-atollic-eabi/6.3.1/../../../../arm-atollic-eabi/lib/armv7-ar/thumb/fpu/libc_nano.a(lib_a-nano-mallocr.o)
 .ARM.attributes
                0x000000000000133d       0x2d /opt/Atollic_TrueSTUDIO_for_ARM_x86_64_8.0.0/ARMTools/bin/../lib/gcc/arm-atollic-eabi/6.3.1/../../../../arm-atollic-eabi/lib/armv7-ar/thumb/fpu/libc_nano.a(lib_a-nano-vfprintf_float.o)
 .ARM.attributes
                0x000000000000136a       0x2d /opt/Atollic_TrueSTUDIO_for_ARM_x86_64_8.0.0/ARMTools/bin/../lib/gcc/arm-atollic-eabi/6.3.1/../../../../arm-atollic-eabi/lib/armv7-ar/thumb/fpu/libc_nano.a(lib_a-nano-vfprintf_i.o)
 .ARM.attributes
                0x0000000000001397       0x2d /opt/Atollic_TrueSTUDIO_for_ARM_x86_64_8.0.0/ARMTools/bin/../lib/gcc/arm-atollic-eabi/6.3.1/../../../../arm-atollic-eabi/lib/armv7-ar/thumb/fpu/libc_nano.a(lib_a-nano-vfscanf_float.o)
 .ARM.attributes
                0x00000000000013c4       0x2d /opt/Atollic_TrueSTUDIO_for_ARM_x86_64_8.0.0/ARMTools/bin/../lib/gcc/arm-atollic-eabi/6.3.1/../../../../arm-atollic-eabi/lib/armv7-ar/thumb/fpu/libc_nano.a(lib_a-reent.o)
 .ARM.attributes
                0x00000000000013f1       0x2d /opt/Atollic_TrueSTUDIO_for_ARM_x86_64_8.0.0/ARMTools/bin/../lib/gcc/arm-atollic-eabi/6.3.1/../../../../arm-atollic-eabi/lib/armv7-ar/thumb/fpu/libc_nano.a(lib_a-sbrkr.o)
 .ARM.attributes
                0x000000000000141e       0x2d /opt/Atollic_TrueSTUDIO_for_ARM_x86_64_8.0.0/ARMTools/bin/../lib/gcc/arm-atollic-eabi/6.3.1/../../../../arm-atollic-eabi/lib/armv7-ar/thumb/fpu/libc_nano.a(lib_a-sf_nan.o)
 .ARM.attributes
                0x000000000000144b       0x2d /opt/Atollic_TrueSTUDIO_for_ARM_x86_64_8.0.0/ARMTools/bin/../lib/gcc/arm-atollic-eabi/6.3.1/../../../../arm-atollic-eabi/lib/armv7-ar/thumb/fpu/libc_nano.a(lib_a-sprintf.o)
 .ARM.attributes
                0x0000000000001478       0x19 /opt/Atollic_TrueSTUDIO_for_ARM_x86_64_8.0.0/ARMTools/bin/../lib/gcc/arm-atollic-eabi/6.3.1/../../../../arm-atollic-eabi/lib/armv7-ar/thumb/fpu/libc_nano.a(lib_a-strlen.o)
 .ARM.attributes
                0x0000000000001491       0x2d /opt/Atollic_TrueSTUDIO_for_ARM_x86_64_8.0.0/ARMTools/bin/../lib/gcc/arm-atollic-eabi/6.3.1/../../../../arm-atollic-eabi/lib/armv7-ar/thumb/fpu/libc_nano.a(lib_a-strncmp.o)
 .ARM.attributes
                0x00000000000014be       0x2d /opt/Atollic_TrueSTUDIO_for_ARM_x86_64_8.0.0/ARMTools/bin/../lib/gcc/arm-atollic-eabi/6.3.1/../../../../arm-atollic-eabi/lib/armv7-ar/thumb/fpu/libc_nano.a(lib_a-strtod.o)
 .ARM.attributes
                0x00000000000014eb       0x2d /opt/Atollic_TrueSTUDIO_for_ARM_x86_64_8.0.0/ARMTools/bin/../lib/gcc/arm-atollic-eabi/6.3.1/../../../../arm-atollic-eabi/lib/armv7-ar/thumb/fpu/libc_nano.a(lib_a-strtol.o)
 .ARM.attributes
                0x0000000000001518       0x2d /opt/Atollic_TrueSTUDIO_for_ARM_x86_64_8.0.0/ARMTools/bin/../lib/gcc/arm-atollic-eabi/6.3.1/../../../../arm-atollic-eabi/lib/armv7-ar/thumb/fpu/libc_nano.a(lib_a-dtoa.o)
 .ARM.attributes
                0x0000000000001545       0x2d /opt/Atollic_TrueSTUDIO_for_ARM_x86_64_8.0.0/ARMTools/bin/../lib/gcc/arm-atollic-eabi/6.3.1/../../../../arm-atollic-eabi/lib/armv7-ar/thumb/fpu/libc_nano.a(lib_a-gdtoa-gethex.o)
 .ARM.attributes
                0x0000000000001572       0x2d /opt/Atollic_TrueSTUDIO_for_ARM_x86_64_8.0.0/ARMTools/bin/../lib/gcc/arm-atollic-eabi/6.3.1/../../../../arm-atollic-eabi/lib/armv7-ar/thumb/fpu/libc_nano.a(lib_a-gdtoa-hexnan.o)
 .ARM.attributes
                0x000000000000159f       0x2d /opt/Atollic_TrueSTUDIO_for_ARM_x86_64_8.0.0/ARMTools/bin/../lib/gcc/arm-atollic-eabi/6.3.1/../../../../arm-atollic-eabi/lib/armv7-ar/thumb/fpu/libc_nano.a(lib_a-locale.o)
 .ARM.attributes
                0x00000000000015cc       0x2d /opt/Atollic_TrueSTUDIO_for_ARM_x86_64_8.0.0/ARMTools/bin/../lib/gcc/arm-atollic-eabi/6.3.1/../../../../arm-atollic-eabi/lib/armv7-ar/thumb/fpu/libc_nano.a(lib_a-localeconv.o)
 .ARM.attributes
                0x00000000000015f9       0x2d /opt/Atollic_TrueSTUDIO_for_ARM_x86_64_8.0.0/ARMTools/bin/../lib/gcc/arm-atollic-eabi/6.3.1/../../../../arm-atollic-eabi/lib/armv7-ar/thumb/fpu/libc_nano.a(lib_a-mbtowc_r.o)
 .ARM.attributes
                0x0000000000001626       0x2d /opt/Atollic_TrueSTUDIO_for_ARM_x86_64_8.0.0/ARMTools/bin/../lib/gcc/arm-atollic-eabi/6.3.1/../../../../arm-atollic-eabi/lib/armv7-ar/thumb/fpu/libc_nano.a(lib_a-mlock.o)
 .ARM.attributes
                0x0000000000001653       0x2d /opt/Atollic_TrueSTUDIO_for_ARM_x86_64_8.0.0/ARMTools/bin/../lib/gcc/arm-atollic-eabi/6.3.1/../../../../arm-atollic-eabi/lib/armv7-ar/thumb/fpu/libc_nano.a(lib_a-mprec.o)
 .ARM.attributes
                0x0000000000001680       0x2d /opt/Atollic_TrueSTUDIO_for_ARM_x86_64_8.0.0/ARMTools/bin/../lib/gcc/arm-atollic-eabi/6.3.1/../../../../arm-atollic-eabi/lib/armv7-ar/thumb/fpu/libc_nano.a(lib_a-nano-callocr.o)
 .ARM.attributes
                0x00000000000016ad       0x2d /opt/Atollic_TrueSTUDIO_for_ARM_x86_64_8.0.0/ARMTools/bin/../lib/gcc/arm-atollic-eabi/6.3.1/../../../../arm-atollic-eabi/lib/armv7-ar/thumb/fpu/libc_nano.a(lib_a-nano-svfprintf.o)
 .ARM.attributes
                0x00000000000016da       0x2d /opt/Atollic_TrueSTUDIO_for_ARM_x86_64_8.0.0/ARMTools/bin/../lib/gcc/arm-atollic-eabi/6.3.1/../../../../arm-atollic-eabi/lib/armv7-ar/thumb/fpu/libc_nano.a(lib_a-wctomb_r.o)
 .ARM.attributes
                0x0000000000001707       0x2d /opt/Atollic_TrueSTUDIO_for_ARM_x86_64_8.0.0/ARMTools/bin/../lib/gcc/arm-atollic-eabi/6.3.1/../../../../arm-atollic-eabi/lib/armv7-ar/thumb/fpu/libc_nano.a(lib_a-ctype_.o)
 .ARM.attributes
                0x0000000000001734       0x2d /opt/Atollic_TrueSTUDIO_for_ARM_x86_64_8.0.0/ARMTools/bin/../lib/gcc/arm-atollic-eabi/6.3.1/../../../../arm-atollic-eabi/lib/armv7-ar/thumb/fpu/libc_nano.a(lib_a-memmove.o)
 .ARM.attributes
                0x0000000000001761       0x2d /opt/Atollic_TrueSTUDIO_for_ARM_x86_64_8.0.0/ARMTools/bin/../lib/gcc/arm-atollic-eabi/6.3.1/../../../../arm-atollic-eabi/lib/armv7-ar/thumb/fpu/libc_nano.a(lib_a-nano-reallocr.o)
 .ARM.attributes
                0x000000000000178e       0x2d /opt/Atollic_TrueSTUDIO_for_ARM_x86_64_8.0.0/ARMTools/bin/../lib/gcc/arm-atollic-eabi/6.3.1/../../../../arm-atollic-eabi/lib/armv7-ar/thumb/fpu/libc_nano.a(lib_a-nano-msizer.o)

.comment        0x0000000000000000       0x7c
 .comment       0x0000000000000000       0x7c log_output.o
                                         0x7d (size before relaxing)
 .comment       0x000000000000007c       0x7d blinky.o
 .comment       0x000000000000007c       0x7d sf_boot.o
 .comment       0x000000000000007c       0x7d tTask_tecsgen.o
 .comment       0x000000000000007c       0x7d tSemaphore_tecsgen.o
 .comment       0x000000000000007c       0x7d tInterruptRequest_tecsgen.o
 .comment       0x000000000000007c       0x7d tISR_tecsgen.o
 .comment       0x000000000000007c       0x7d tInitializeRoutine_tecsgen.o
 .comment       0x000000000000007c       0x7d tTerminateRoutine_tecsgen.o
 .comment       0x000000000000007c       0x7d tSerialPortMain_tecsgen.o
 .comment       0x000000000000007c       0x7d tSerialAdapter_tecsgen.o
 .comment       0x000000000000007c       0x7d tSysLog_tecsgen.o
 .comment       0x000000000000007c       0x7d tSysLogAdapter_tecsgen.o
 .comment       0x000000000000007c       0x7d tLogTaskMain_tecsgen.o
 .comment       0x000000000000007c       0x7d tBannerMain_tecsgen.o
 .comment       0x000000000000007c       0x7d tPutLogGRPeach_tecsgen.o
 .comment       0x000000000000007c       0x7d tSCIF_tecsgen.o
 .comment       0x000000000000007c       0x7d tSIOPortGRPeachMain_tecsgen.o
 .comment       0x000000000000007c       0x7d tTask.o
 .comment       0x000000000000007c       0x7d tISR.o
 .comment       0x000000000000007c       0x7d tInitializeRoutine.o
 .comment       0x000000000000007c       0x7d tTerminateRoutine.o
 .comment       0x000000000000007c       0x7d tSerialPortMain.o
 .comment       0x000000000000007c       0x7d tSysLog.o
 .comment       0x000000000000007c       0x7d tSysLogAdapter.o
 .comment       0x000000000000007c       0x7d tLogTaskMain.o
 .comment       0x000000000000007c       0x7d tBannerMain.o
 .comment       0x000000000000007c       0x7d tPutLogGRPeach.o
 .comment       0x000000000000007c       0x7d tSCIF.o
 .comment       0x000000000000007c       0x7d init_tecs.o
 .comment       0x000000000000007c       0x7d kernel_cfg.o
 .comment       0x000000000000007c       0x7d libmbed.a(RZ_A1_Init.o)
 .comment       0x000000000000007c       0x7d libmbed.a(mmu_Renesas_RZ_A1.o)
 .comment       0x000000000000007c       0x7d libmbed.a(system_MBRZA1H.o)
 .comment       0x000000000000007c       0x7d libmbed.a(gpio.o)
 .comment       0x000000000000007c       0x7d libmbed.a(common.o)
 .comment       0x000000000000007c       0x7d libmbed.a(Timeout.o)
 .comment       0x000000000000007c       0x7d libmbed.a(TimerEvent.o)
 .comment       0x000000000000007c       0x7d libmbed.a(retarget.o)
 .comment       0x000000000000007c       0x7d libmbed.a(Ticker.o)
 .comment       0x000000000000007c       0x7d libmbed.a(SoftPWM.o)
 .comment       0x000000000000007c       0x7d libmbed.a(gic.o)
 .comment       0x000000000000007c       0x7d libmbed.a(pl310.o)
 .comment       0x000000000000007c       0x7d libmbed.a(gpio_api.o)
 .comment       0x000000000000007c       0x7d libmbed.a(pinmap.o)
 .comment       0x000000000000007c       0x7d libmbed.a(board.o)
 .comment       0x000000000000007c       0x7d libmbed.a(us_ticker_api.o)
 .comment       0x000000000000007c       0x7d libmbed.a(wait_api.o)
 .comment       0x000000000000007c       0x7d libmbed.a(ticker_api.o)
 .comment       0x000000000000007c       0x7d libmbed.a(us_ticker.o)
 .comment       0x000000000000007c       0x7d ./libkernel.a(target_kernel_impl.o)
 .comment       0x000000000000007c       0x7d ./libkernel.a(chip_kernel_impl.o)
 .comment       0x000000000000007c       0x7d ./libkernel.a(gic_kernel_impl.o)
 .comment       0x000000000000007c       0x7d ./libkernel.a(chip_timer.o)
 .comment       0x000000000000007c       0x7d ./libkernel.a(core_kernel_impl.o)
 .comment       0x000000000000007c       0x7d ./libkernel.a(arm.o)
 .comment       0x000000000000007c       0x7d ./libkernel.a(startup.o)
 .comment       0x000000000000007c       0x7d ./libkernel.a(task.o)
 .comment       0x000000000000007c       0x7d ./libkernel.a(taskhook.o)
 .comment       0x000000000000007c       0x7d ./libkernel.a(time_event.o)
 .comment       0x000000000000007c       0x7d ./libkernel.a(task_sync.o)
 .comment       0x000000000000007c       0x7d ./libkernel.a(task_term.o)
 .comment       0x000000000000007c       0x7d ./libkernel.a(semaphore.o)
 .comment       0x000000000000007c       0x7d ./libkernel.a(sys_manage.o)
 .comment       0x000000000000007c       0x7d ./libkernel.a(interrupt.o)
 .comment       0x000000000000007c       0x7d ./libkernel.a(wait.o)

.debug_line     0x0000000000000000     0xac7e
 .debug_line    0x0000000000000000       0x72 start.o
 .debug_line    0x0000000000000072      0x205 log_output.o
 .debug_line    0x0000000000000277      0x6e3 blinky.o
 .debug_line    0x000000000000095a       0x4c sf_boot.o
 .debug_line    0x00000000000009a6      0x206 tTask_tecsgen.o
 .debug_line    0x0000000000000bac       0x95 tSemaphore_tecsgen.o
 .debug_line    0x0000000000000c41       0xaf tInterruptRequest_tecsgen.o
 .debug_line    0x0000000000000cf0       0xa4 tISR_tecsgen.o
 .debug_line    0x0000000000000d94       0x99 tInitializeRoutine_tecsgen.o
 .debug_line    0x0000000000000e2d      0x21d tTerminateRoutine_tecsgen.o
 .debug_line    0x000000000000104a      0x224 tSerialPortMain_tecsgen.o
 .debug_line    0x000000000000126e       0xc9 tSerialAdapter_tecsgen.o
 .debug_line    0x0000000000001337      0x1d1 tSysLog_tecsgen.o
 .debug_line    0x0000000000001508      0x1d4 tSysLogAdapter_tecsgen.o
 .debug_line    0x00000000000016dc      0x1ec tLogTaskMain_tecsgen.o
 .debug_line    0x00000000000018c8       0x65 tBannerMain_tecsgen.o
 .debug_line    0x000000000000192d      0x1b1 tPutLogGRPeach_tecsgen.o
 .debug_line    0x0000000000001ade      0x1eb tSCIF_tecsgen.o
 .debug_line    0x0000000000001cc9      0x1e4 tSIOPortGRPeachMain_tecsgen.o
 .debug_line    0x0000000000001ead      0x20c tTask.o
 .debug_line    0x00000000000020b9      0x175 tISR.o
 .debug_line    0x000000000000222e      0x16b tInitializeRoutine.o
 .debug_line    0x0000000000002399      0x224 tTerminateRoutine.o
 .debug_line    0x00000000000025bd      0x4dd tSerialPortMain.o
 .debug_line    0x0000000000002a9a      0x2c6 tSysLog.o
 .debug_line    0x0000000000002d60      0x1fa tSysLogAdapter.o
 .debug_line    0x0000000000002f5a      0x272 tLogTaskMain.o
 .debug_line    0x00000000000031cc      0x182 tBannerMain.o
 .debug_line    0x000000000000334e      0x272 tPutLogGRPeach.o
 .debug_line    0x00000000000035c0      0x307 tSCIF.o
 .debug_line    0x00000000000038c7       0x58 init_tecs.o
 .debug_line    0x000000000000391f      0x3bc kernel_cfg.o
 .debug_line    0x0000000000003cdb      0x28c libmbed.a(RZ_A1_Init.o)
 .debug_line    0x0000000000003f67      0x506 libmbed.a(mmu_Renesas_RZ_A1.o)
 .debug_line    0x000000000000446d      0x39e libmbed.a(system_MBRZA1H.o)
 .debug_line    0x000000000000480b      0x22f libmbed.a(gpio.o)
 .debug_line    0x0000000000004a3a      0x143 libmbed.a(common.o)
 .debug_line    0x0000000000004b7d      0x283 libmbed.a(Timeout.o)
 .debug_line    0x0000000000004e00      0x1f6 libmbed.a(TimerEvent.o)
 .debug_line    0x0000000000004ff6      0x824 libmbed.a(retarget.o)
 .debug_line    0x000000000000581a      0x2c0 libmbed.a(Ticker.o)
 .debug_line    0x0000000000005ada      0x6c5 libmbed.a(SoftPWM.o)
 .debug_line    0x000000000000619f      0x3b2 libmbed.a(gic.o)
 .debug_line    0x0000000000006551      0x218 libmbed.a(pl310.o)
 .debug_line    0x0000000000006769      0x1b7 libmbed.a(gpio_api.o)
 .debug_line    0x0000000000006920      0x117 libmbed.a(pinmap.o)
 .debug_line    0x0000000000006a37      0x17d libmbed.a(board.o)
 .debug_line    0x0000000000006bb4      0x16e libmbed.a(us_ticker_api.o)
 .debug_line    0x0000000000006d22      0x153 libmbed.a(wait_api.o)
 .debug_line    0x0000000000006e75      0x25c libmbed.a(ticker_api.o)
 .debug_line    0x00000000000070d1      0x3bb libmbed.a(us_ticker.o)
 .debug_line    0x000000000000748c       0x92 ./libkernel.a(target_support.o)
 .debug_line    0x000000000000751e      0x1c1 ./libkernel.a(core_support.o)
 .debug_line    0x00000000000076df      0x2e8 ./libkernel.a(target_kernel_impl.o)
 .debug_line    0x00000000000079c7      0x3b4 ./libkernel.a(chip_kernel_impl.o)
 .debug_line    0x0000000000007d7b      0x2b8 ./libkernel.a(gic_kernel_impl.o)
 .debug_line    0x0000000000008033      0x296 ./libkernel.a(chip_timer.o)
 .debug_line    0x00000000000082c9      0x354 ./libkernel.a(core_kernel_impl.o)
 .debug_line    0x000000000000861d      0x204 ./libkernel.a(arm.o)
 .debug_line    0x0000000000008821      0x28b ./libkernel.a(startup.o)
 .debug_line    0x0000000000008aac      0x3f7 ./libkernel.a(task.o)
 .debug_line    0x0000000000008ea3      0x220 ./libkernel.a(taskhook.o)
 .debug_line    0x00000000000090c3      0x3eb ./libkernel.a(time_event.o)
 .debug_line    0x00000000000094ae      0x457 ./libkernel.a(task_sync.o)
 .debug_line    0x0000000000009905      0x3a0 ./libkernel.a(task_term.o)
 .debug_line    0x0000000000009ca5      0x431 ./libkernel.a(semaphore.o)
 .debug_line    0x000000000000a0d6      0x3df ./libkernel.a(sys_manage.o)
 .debug_line    0x000000000000a4b5      0x3be ./libkernel.a(interrupt.o)
 .debug_line    0x000000000000a873       0xa8 ./libkernel.a(gic_support.o)
 .debug_line    0x000000000000a91b      0x363 ./libkernel.a(wait.o)

.debug_info     0x0000000000000000    0x24206
 .debug_info    0x0000000000000000       0x99 start.o
 .debug_info    0x0000000000000099      0x379 log_output.o
 .debug_info    0x0000000000000412     0x2a8b blinky.o
 .debug_info    0x0000000000002e9d       0x58 sf_boot.o
 .debug_info    0x0000000000002ef5      0x531 tTask_tecsgen.o
 .debug_info    0x0000000000003426      0x123 tSemaphore_tecsgen.o
 .debug_info    0x0000000000003549      0x125 tInterruptRequest_tecsgen.o
 .debug_info    0x000000000000366e      0x199 tISR_tecsgen.o
 .debug_info    0x0000000000003807      0x12c tInitializeRoutine_tecsgen.o
 .debug_info    0x0000000000003933      0x502 tTerminateRoutine_tecsgen.o
 .debug_info    0x0000000000003e35      0x717 tSerialPortMain_tecsgen.o
 .debug_info    0x000000000000454c      0x2a3 tSerialAdapter_tecsgen.o
 .debug_info    0x00000000000047ef      0x4ac tSysLog_tecsgen.o
 .debug_info    0x0000000000004c9b      0x471 tSysLogAdapter_tecsgen.o
 .debug_info    0x000000000000510c      0x4c9 tLogTaskMain_tecsgen.o
 .debug_info    0x00000000000055d5       0xf3 tBannerMain_tecsgen.o
 .debug_info    0x00000000000056c8      0x32d tPutLogGRPeach_tecsgen.o
 .debug_info    0x00000000000059f5      0x509 tSCIF_tecsgen.o
 .debug_info    0x0000000000005efe      0x373 tSIOPortGRPeachMain_tecsgen.o
 .debug_info    0x0000000000006271      0x526 tTask.o
 .debug_info    0x0000000000006797      0x18e tISR.o
 .debug_info    0x0000000000006925      0x147 tInitializeRoutine.o
 .debug_info    0x0000000000006a6c      0x507 tTerminateRoutine.o
 .debug_info    0x0000000000006f73      0xb71 tSerialPortMain.o
 .debug_info    0x0000000000007ae4      0x75d tSysLog.o
 .debug_info    0x0000000000008241      0x59b tSysLogAdapter.o
 .debug_info    0x00000000000087dc      0x6c7 tLogTaskMain.o
 .debug_info    0x0000000000008ea3      0x23f tBannerMain.o
 .debug_info    0x00000000000090e2      0x44f tPutLogGRPeach.o
 .debug_info    0x0000000000009531      0x8c6 tSCIF.o
 .debug_info    0x0000000000009df7       0x99 init_tecs.o
 .debug_info    0x0000000000009e90     0x15e1 kernel_cfg.o
 .debug_info    0x000000000000b471     0x118d libmbed.a(RZ_A1_Init.o)
 .debug_info    0x000000000000c5fe      0x9f4 libmbed.a(mmu_Renesas_RZ_A1.o)
 .debug_info    0x000000000000cff2     0x1a6a libmbed.a(system_MBRZA1H.o)
 .debug_info    0x000000000000ea5c      0x8b6 libmbed.a(gpio.o)
 .debug_info    0x000000000000f312      0x159 libmbed.a(common.o)
 .debug_info    0x000000000000f46b      0xba5 libmbed.a(Timeout.o)
 .debug_info    0x0000000000010010      0x4e8 libmbed.a(TimerEvent.o)
 .debug_info    0x00000000000104f8     0x2a4c libmbed.a(retarget.o)
 .debug_info    0x0000000000012f44      0xdeb libmbed.a(Ticker.o)
 .debug_info    0x0000000000013d2f     0x2a9a libmbed.a(SoftPWM.o)
 .debug_info    0x00000000000167c9     0x1472 libmbed.a(gic.o)
 .debug_info    0x0000000000017c3b      0x521 libmbed.a(pl310.o)
 .debug_info    0x000000000001815c      0x782 libmbed.a(gpio_api.o)
 .debug_info    0x00000000000188de      0x71b libmbed.a(pinmap.o)
 .debug_info    0x0000000000018ff9       0xdb libmbed.a(board.o)
 .debug_info    0x00000000000190d4      0x237 libmbed.a(us_ticker_api.o)
 .debug_info    0x000000000001930b      0x106 libmbed.a(wait_api.o)
 .debug_info    0x0000000000019411      0x43a libmbed.a(ticker_api.o)
 .debug_info    0x000000000001984b     0x1cde libmbed.a(us_ticker.o)
 .debug_info    0x000000000001b529       0xa2 ./libkernel.a(target_support.o)
 .debug_info    0x000000000001b5cb       0x9c ./libkernel.a(core_support.o)
 .debug_info    0x000000000001b667      0x46a ./libkernel.a(target_kernel_impl.o)
 .debug_info    0x000000000001bad1      0x834 ./libkernel.a(chip_kernel_impl.o)
 .debug_info    0x000000000001c305      0x3d0 ./libkernel.a(gic_kernel_impl.o)
 .debug_info    0x000000000001c6d5      0x5b2 ./libkernel.a(chip_timer.o)
 .debug_info    0x000000000001cc87      0xaf7 ./libkernel.a(core_kernel_impl.o)
 .debug_info    0x000000000001d77e      0x32f ./libkernel.a(arm.o)
 .debug_info    0x000000000001daad      0x4cd ./libkernel.a(startup.o)
 .debug_info    0x000000000001df7a      0xcfb ./libkernel.a(task.o)
 .debug_info    0x000000000001ec75      0x6f4 ./libkernel.a(taskhook.o)
 .debug_info    0x000000000001f369      0x8de ./libkernel.a(time_event.o)
 .debug_info    0x000000000001fc47      0xb4b ./libkernel.a(task_sync.o)
 .debug_info    0x0000000000020792      0x9f1 ./libkernel.a(task_term.o)
 .debug_info    0x0000000000021183      0xcbc ./libkernel.a(semaphore.o)
 .debug_info    0x0000000000021e3f      0xaf1 ./libkernel.a(sys_manage.o)
 .debug_info    0x0000000000022930      0xcdd ./libkernel.a(interrupt.o)
 .debug_info    0x000000000002360d       0x9f ./libkernel.a(gic_support.o)
 .debug_info    0x00000000000236ac      0xb5a ./libkernel.a(wait.o)

.debug_abbrev   0x0000000000000000     0x6f22
 .debug_abbrev  0x0000000000000000       0x14 start.o
 .debug_abbrev  0x0000000000000014       0xfa log_output.o
 .debug_abbrev  0x000000000000010e      0x511 blinky.o
 .debug_abbrev  0x000000000000061f       0x45 sf_boot.o
 .debug_abbrev  0x0000000000000664       0xf9 tTask_tecsgen.o
 .debug_abbrev  0x000000000000075d       0xd4 tSemaphore_tecsgen.o
 .debug_abbrev  0x0000000000000831       0xc7 tInterruptRequest_tecsgen.o
 .debug_abbrev  0x00000000000008f8       0xf3 tISR_tecsgen.o
 .debug_abbrev  0x00000000000009eb       0xaa tInitializeRoutine_tecsgen.o
 .debug_abbrev  0x0000000000000a95       0xea tTerminateRoutine_tecsgen.o
 .debug_abbrev  0x0000000000000b7f      0x17b tSerialPortMain_tecsgen.o
 .debug_abbrev  0x0000000000000cfa       0xf7 tSerialAdapter_tecsgen.o
 .debug_abbrev  0x0000000000000df1       0xea tSysLog_tecsgen.o
 .debug_abbrev  0x0000000000000edb       0xcc tSysLogAdapter_tecsgen.o
 .debug_abbrev  0x0000000000000fa7       0xd9 tLogTaskMain_tecsgen.o
 .debug_abbrev  0x0000000000001080       0x99 tBannerMain_tecsgen.o
 .debug_abbrev  0x0000000000001119       0xb6 tPutLogGRPeach_tecsgen.o
 .debug_abbrev  0x00000000000011cf      0x141 tSCIF_tecsgen.o
 .debug_abbrev  0x0000000000001310       0xd4 tSIOPortGRPeachMain_tecsgen.o
 .debug_abbrev  0x00000000000013e4       0xee tTask.o
 .debug_abbrev  0x00000000000014d2       0xe8 tISR.o
 .debug_abbrev  0x00000000000015ba       0xae tInitializeRoutine.o
 .debug_abbrev  0x0000000000001668       0xee tTerminateRoutine.o
 .debug_abbrev  0x0000000000001756      0x21c tSerialPortMain.o
 .debug_abbrev  0x0000000000001972      0x18a tSysLog.o
 .debug_abbrev  0x0000000000001afc      0x115 tSysLogAdapter.o
 .debug_abbrev  0x0000000000001c11      0x163 tLogTaskMain.o
 .debug_abbrev  0x0000000000001d74       0xec tBannerMain.o
 .debug_abbrev  0x0000000000001e60      0x122 tPutLogGRPeach.o
 .debug_abbrev  0x0000000000001f82      0x1da tSCIF.o
 .debug_abbrev  0x000000000000215c       0x42 init_tecs.o
 .debug_abbrev  0x000000000000219e      0x19a kernel_cfg.o
 .debug_abbrev  0x0000000000002338      0x1b1 libmbed.a(RZ_A1_Init.o)
 .debug_abbrev  0x00000000000024e9      0x1ed libmbed.a(mmu_Renesas_RZ_A1.o)
 .debug_abbrev  0x00000000000026d6      0x38f libmbed.a(system_MBRZA1H.o)
 .debug_abbrev  0x0000000000002a65      0x109 libmbed.a(gpio.o)
 .debug_abbrev  0x0000000000002b6e       0xca libmbed.a(common.o)
 .debug_abbrev  0x0000000000002c38      0x2a4 libmbed.a(Timeout.o)
 .debug_abbrev  0x0000000000002edc      0x276 libmbed.a(TimerEvent.o)
 .debug_abbrev  0x0000000000003152      0x604 libmbed.a(retarget.o)
 .debug_abbrev  0x0000000000003756      0x2bb libmbed.a(Ticker.o)
 .debug_abbrev  0x0000000000003a11      0x4ab libmbed.a(SoftPWM.o)
 .debug_abbrev  0x0000000000003ebc      0x1cb libmbed.a(gic.o)
 .debug_abbrev  0x0000000000004087      0x114 libmbed.a(pl310.o)
 .debug_abbrev  0x000000000000419b      0x11e libmbed.a(gpio_api.o)
 .debug_abbrev  0x00000000000042b9      0x115 libmbed.a(pinmap.o)
 .debug_abbrev  0x00000000000043ce       0x90 libmbed.a(board.o)
 .debug_abbrev  0x000000000000445e       0xe2 libmbed.a(us_ticker_api.o)
 .debug_abbrev  0x0000000000004540       0x6f libmbed.a(wait_api.o)
 .debug_abbrev  0x00000000000045af      0x19b libmbed.a(ticker_api.o)
 .debug_abbrev  0x000000000000474a      0x29a libmbed.a(us_ticker.o)
 .debug_abbrev  0x00000000000049e4       0x14 ./libkernel.a(target_support.o)
 .debug_abbrev  0x00000000000049f8       0x12 ./libkernel.a(core_support.o)
 .debug_abbrev  0x0000000000004a0a      0x21b ./libkernel.a(target_kernel_impl.o)
 .debug_abbrev  0x0000000000004c25      0x2a4 ./libkernel.a(chip_kernel_impl.o)
 .debug_abbrev  0x0000000000004ec9      0x1a7 ./libkernel.a(gic_kernel_impl.o)
 .debug_abbrev  0x0000000000005070      0x200 ./libkernel.a(chip_timer.o)
 .debug_abbrev  0x0000000000005270      0x2aa ./libkernel.a(core_kernel_impl.o)
 .debug_abbrev  0x000000000000551a       0xc2 ./libkernel.a(arm.o)
 .debug_abbrev  0x00000000000055dc      0x1db ./libkernel.a(startup.o)
 .debug_abbrev  0x00000000000057b7      0x2f9 ./libkernel.a(task.o)
 .debug_abbrev  0x0000000000005ab0      0x151 ./libkernel.a(taskhook.o)
 .debug_abbrev  0x0000000000005c01      0x318 ./libkernel.a(time_event.o)
 .debug_abbrev  0x0000000000005f19      0x280 ./libkernel.a(task_sync.o)
 .debug_abbrev  0x0000000000006199      0x2e4 ./libkernel.a(task_term.o)
 .debug_abbrev  0x000000000000647d      0x2c3 ./libkernel.a(semaphore.o)
 .debug_abbrev  0x0000000000006740      0x2c9 ./libkernel.a(sys_manage.o)
 .debug_abbrev  0x0000000000006a09      0x2fc ./libkernel.a(interrupt.o)
 .debug_abbrev  0x0000000000006d05       0x14 ./libkernel.a(gic_support.o)
 .debug_abbrev  0x0000000000006d19      0x209 ./libkernel.a(wait.o)

.debug_aranges  0x0000000000000000      0xe60
 .debug_aranges
                0x0000000000000000       0x20 start.o
 .debug_aranges
                0x0000000000000020       0x20 log_output.o
 .debug_aranges
                0x0000000000000040       0xc0 blinky.o
 .debug_aranges
                0x0000000000000100       0x18 sf_boot.o
 .debug_aranges
                0x0000000000000118       0x20 tTask_tecsgen.o
 .debug_aranges
                0x0000000000000138       0x20 tSemaphore_tecsgen.o
 .debug_aranges
                0x0000000000000158       0x20 tInterruptRequest_tecsgen.o
 .debug_aranges
                0x0000000000000178       0x20 tISR_tecsgen.o
 .debug_aranges
                0x0000000000000198       0x20 tInitializeRoutine_tecsgen.o
 .debug_aranges
                0x00000000000001b8       0x20 tTerminateRoutine_tecsgen.o
 .debug_aranges
                0x00000000000001d8       0x20 tSerialPortMain_tecsgen.o
 .debug_aranges
                0x00000000000001f8       0x20 tSerialAdapter_tecsgen.o
 .debug_aranges
                0x0000000000000218       0x20 tSysLog_tecsgen.o
 .debug_aranges
                0x0000000000000238       0x20 tSysLogAdapter_tecsgen.o
 .debug_aranges
                0x0000000000000258       0x20 tLogTaskMain_tecsgen.o
 .debug_aranges
                0x0000000000000278       0x20 tBannerMain_tecsgen.o
 .debug_aranges
                0x0000000000000298       0x20 tPutLogGRPeach_tecsgen.o
 .debug_aranges
                0x00000000000002b8       0x20 tSCIF_tecsgen.o
 .debug_aranges
                0x00000000000002d8       0x20 tSIOPortGRPeachMain_tecsgen.o
 .debug_aranges
                0x00000000000002f8       0x20 tTask.o
 .debug_aranges
                0x0000000000000318       0x20 tISR.o
 .debug_aranges
                0x0000000000000338       0x20 tInitializeRoutine.o
 .debug_aranges
                0x0000000000000358       0x20 tTerminateRoutine.o
 .debug_aranges
                0x0000000000000378       0x20 tSerialPortMain.o
 .debug_aranges
                0x0000000000000398       0x20 tSysLog.o
 .debug_aranges
                0x00000000000003b8       0x20 tSysLogAdapter.o
 .debug_aranges
                0x00000000000003d8       0x20 tLogTaskMain.o
 .debug_aranges
                0x00000000000003f8       0x20 tBannerMain.o
 .debug_aranges
                0x0000000000000418       0x20 tPutLogGRPeach.o
 .debug_aranges
                0x0000000000000438       0x20 tSCIF.o
 .debug_aranges
                0x0000000000000458       0x20 init_tecs.o
 .debug_aranges
                0x0000000000000478       0x20 kernel_cfg.o
 .debug_aranges
                0x0000000000000498       0x38 libmbed.a(RZ_A1_Init.o)
 .debug_aranges
                0x00000000000004d0       0xb8 libmbed.a(mmu_Renesas_RZ_A1.o)
 .debug_aranges
                0x0000000000000588       0x58 libmbed.a(system_MBRZA1H.o)
 .debug_aranges
                0x00000000000005e0       0x58 libmbed.a(gpio.o)
 .debug_aranges
                0x0000000000000638       0x20 libmbed.a(common.o)
 .debug_aranges
                0x0000000000000658       0x48 libmbed.a(Timeout.o)
 .debug_aranges
                0x00000000000006a0       0x50 libmbed.a(TimerEvent.o)
 .debug_aranges
                0x00000000000006f0      0x120 libmbed.a(retarget.o)
 .debug_aranges
                0x0000000000000810       0x50 libmbed.a(Ticker.o)
 .debug_aranges
                0x0000000000000860       0xe0 libmbed.a(SoftPWM.o)
 .debug_aranges
                0x0000000000000940       0xe8 libmbed.a(gic.o)
 .debug_aranges
                0x0000000000000a28       0x68 libmbed.a(pl310.o)
 .debug_aranges
                0x0000000000000a90       0x38 libmbed.a(gpio_api.o)
 .debug_aranges
                0x0000000000000ac8       0x28 libmbed.a(pinmap.o)
 .debug_aranges
                0x0000000000000af0       0x20 libmbed.a(board.o)
 .debug_aranges
                0x0000000000000b10       0x28 libmbed.a(us_ticker_api.o)
 .debug_aranges
                0x0000000000000b38       0x30 libmbed.a(wait_api.o)
 .debug_aranges
                0x0000000000000b68       0x48 libmbed.a(ticker_api.o)
 .debug_aranges
                0x0000000000000bb0       0x50 libmbed.a(us_ticker.o)
 .debug_aranges
                0x0000000000000c00       0x20 ./libkernel.a(target_support.o)
 .debug_aranges
                0x0000000000000c20       0x28 ./libkernel.a(core_support.o)
 .debug_aranges
                0x0000000000000c48       0x20 ./libkernel.a(target_kernel_impl.o)
 .debug_aranges
                0x0000000000000c68       0x20 ./libkernel.a(chip_kernel_impl.o)
 .debug_aranges
                0x0000000000000c88       0x20 ./libkernel.a(gic_kernel_impl.o)
 .debug_aranges
                0x0000000000000ca8       0x20 ./libkernel.a(chip_timer.o)
 .debug_aranges
                0x0000000000000cc8       0x20 ./libkernel.a(core_kernel_impl.o)
 .debug_aranges
                0x0000000000000ce8       0x20 ./libkernel.a(arm.o)
 .debug_aranges
                0x0000000000000d08       0x20 ./libkernel.a(startup.o)
 .debug_aranges
                0x0000000000000d28       0x20 ./libkernel.a(task.o)
 .debug_aranges
                0x0000000000000d48       0x18 ./libkernel.a(taskhook.o)
 .debug_aranges
                0x0000000000000d60       0x20 ./libkernel.a(time_event.o)
 .debug_aranges
                0x0000000000000d80       0x20 ./libkernel.a(task_sync.o)
 .debug_aranges
                0x0000000000000da0       0x20 ./libkernel.a(task_term.o)
 .debug_aranges
                0x0000000000000dc0       0x20 ./libkernel.a(semaphore.o)
 .debug_aranges
                0x0000000000000de0       0x20 ./libkernel.a(sys_manage.o)
 .debug_aranges
                0x0000000000000e00       0x20 ./libkernel.a(interrupt.o)
 .debug_aranges
                0x0000000000000e20       0x20 ./libkernel.a(gic_support.o)
 .debug_aranges
                0x0000000000000e40       0x20 ./libkernel.a(wait.o)

.debug_str      0x0000000000000000     0x8c6d
 .debug_str     0x0000000000000000      0x240 log_output.o
                                        0x2ad (size before relaxing)
 .debug_str     0x0000000000000240     0x14f4 blinky.o
                                       0x17cc (size before relaxing)
 .debug_str     0x0000000000001734       0x38 sf_boot.o
                                        0x11f (size before relaxing)
 .debug_str     0x000000000000176c      0x31b tTask_tecsgen.o
                                        0x5c1 (size before relaxing)
 .debug_str     0x0000000000001a87       0x34 tSemaphore_tecsgen.o
                                        0x1f6 (size before relaxing)
 .debug_str     0x0000000000001abb       0x42 tInterruptRequest_tecsgen.o
                                        0x230 (size before relaxing)
 .debug_str     0x0000000000001afd       0xc3 tISR_tecsgen.o
                                        0x257 (size before relaxing)
 .debug_str     0x0000000000001bc0       0xb1 tInitializeRoutine_tecsgen.o
                                        0x261 (size before relaxing)
 .debug_str     0x0000000000001c71       0x5b tTerminateRoutine_tecsgen.o
                                        0x5e4 (size before relaxing)
 .debug_str     0x0000000000001ccc      0x2e1 tSerialPortMain_tecsgen.o
                                        0x6fa (size before relaxing)
 .debug_str     0x0000000000001fad       0x9c tSerialAdapter_tecsgen.o
                                        0x2fb (size before relaxing)
 .debug_str     0x0000000000002049       0x54 tSysLog_tecsgen.o
                                        0x55d (size before relaxing)
 .debug_str     0x000000000000209d       0x3c tSysLogAdapter_tecsgen.o
                                        0x545 (size before relaxing)
 .debug_str     0x00000000000020d9       0x38 tLogTaskMain_tecsgen.o
                                        0x5a1 (size before relaxing)
 .debug_str     0x0000000000002111       0x36 tBannerMain_tecsgen.o
                                        0x218 (size before relaxing)
 .debug_str     0x0000000000002147       0x3c tPutLogGRPeach_tecsgen.o
                                        0x450 (size before relaxing)
 .debug_str     0x0000000000002183       0xc3 tSCIF_tecsgen.o
                                        0x556 (size before relaxing)
 .debug_str     0x0000000000002246       0x61 tSIOPortGRPeachMain_tecsgen.o
                                        0x497 (size before relaxing)
 .debug_str     0x00000000000022a7       0x37 tTask.o
                                        0x5cf (size before relaxing)
 .debug_str     0x00000000000022de       0x2c tISR.o
                                        0x239 (size before relaxing)
 .debug_str     0x000000000000230a       0x48 tInitializeRoutine.o
                                        0x283 (size before relaxing)
 .debug_str     0x0000000000002352       0x46 tTerminateRoutine.o
                                        0x5f2 (size before relaxing)
 .debug_str     0x0000000000002398      0x407 tSerialPortMain.o
                                        0x8ca (size before relaxing)
 .debug_str     0x000000000000279f      0x160 tSysLog.o
                                        0x6a5 (size before relaxing)
 .debug_str     0x00000000000028ff       0x76 tSysLogAdapter.o
                                        0x5c4 (size before relaxing)
 .debug_str     0x0000000000002975       0xb7 tLogTaskMain.o
                                        0x6ae (size before relaxing)
 .debug_str     0x0000000000002a2c       0x71 tBannerMain.o
                                        0x2c2 (size before relaxing)
 .debug_str     0x0000000000002a9d       0x6c tPutLogGRPeach.o
                                        0x561 (size before relaxing)
 .debug_str     0x0000000000002b09      0x1c4 tSCIF.o
                                        0x6af (size before relaxing)
 .debug_str     0x0000000000002ccd       0x36 init_tecs.o
                                        0x1b5 (size before relaxing)
 .debug_str     0x0000000000002d03      0xaf9 kernel_cfg.o
                                       0x123d (size before relaxing)
 .debug_str     0x00000000000037fc      0x7bb libmbed.a(RZ_A1_Init.o)
                                        0xce0 (size before relaxing)
 .debug_str     0x0000000000003fb7      0x5a4 libmbed.a(mmu_Renesas_RZ_A1.o)
                                        0x842 (size before relaxing)
 .debug_str     0x000000000000455b     0x1c8d libmbed.a(system_MBRZA1H.o)
                                       0x2327 (size before relaxing)
 .debug_str     0x00000000000061e8       0xda libmbed.a(gpio.o)
                                        0x80d (size before relaxing)
 .debug_str     0x00000000000062c2      0x1e8 libmbed.a(common.o)
                                        0x2f4 (size before relaxing)
 .debug_str     0x00000000000064aa       0x49 libmbed.a(Timeout.o)
                                        0x89e (size before relaxing)
 .debug_str     0x00000000000064f3      0x22b libmbed.a(TimerEvent.o)
                                        0x57b (size before relaxing)
 .debug_str     0x000000000000671e      0x746 libmbed.a(retarget.o)
                                       0x165f (size before relaxing)
 .debug_str     0x0000000000006e64       0xde libmbed.a(Ticker.o)
                                        0xa63 (size before relaxing)
 .debug_str     0x0000000000006f42      0x1bb libmbed.a(SoftPWM.o)
                                       0x1653 (size before relaxing)
 .debug_str     0x00000000000070fd      0x3aa libmbed.a(gic.o)
                                       0x20ef (size before relaxing)
 .debug_str     0x00000000000074a7      0x37c libmbed.a(pl310.o)
                                        0x631 (size before relaxing)
 .debug_str     0x0000000000007823       0x7b libmbed.a(gpio_api.o)
                                        0x7e0 (size before relaxing)
 .debug_str     0x000000000000789e       0xa5 libmbed.a(pinmap.o)
                                        0x7a8 (size before relaxing)
 .debug_str     0x0000000000007943       0x41 libmbed.a(board.o)
                                        0x27f (size before relaxing)
 .debug_str     0x0000000000007984       0x77 libmbed.a(us_ticker_api.o)
                                        0x38f (size before relaxing)
 .debug_str     0x00000000000079fb       0x3d libmbed.a(wait_api.o)
                                        0x285 (size before relaxing)
 .debug_str     0x0000000000007a38       0x84 libmbed.a(ticker_api.o)
                                        0x3ef (size before relaxing)
 .debug_str     0x0000000000007abc      0x1e1 libmbed.a(us_ticker.o)
                                       0x257b (size before relaxing)
 .debug_str     0x0000000000007c9d       0xae ./libkernel.a(target_kernel_impl.o)
                                        0x3f3 (size before relaxing)
 .debug_str     0x0000000000007d4b      0x199 ./libkernel.a(chip_kernel_impl.o)
                                        0x5d4 (size before relaxing)
 .debug_str     0x0000000000007ee4       0xa4 ./libkernel.a(gic_kernel_impl.o)
                                        0x423 (size before relaxing)
 .debug_str     0x0000000000007f88       0xe9 ./libkernel.a(chip_timer.o)
                                        0x570 (size before relaxing)
 .debug_str     0x0000000000008071      0x15b ./libkernel.a(core_kernel_impl.o)
                                        0x816 (size before relaxing)
 .debug_str     0x00000000000081cc      0x152 ./libkernel.a(arm.o)
                                        0x315 (size before relaxing)
 .debug_str     0x000000000000831e       0x43 ./libkernel.a(startup.o)
                                        0x4e1 (size before relaxing)
 .debug_str     0x0000000000008361      0x302 ./libkernel.a(task.o)
                                        0x9a7 (size before relaxing)
 .debug_str     0x0000000000008663       0x20 ./libkernel.a(taskhook.o)
                                        0x695 (size before relaxing)
 .debug_str     0x0000000000008683      0x1df ./libkernel.a(time_event.o)
                                        0x6ed (size before relaxing)
 .debug_str     0x0000000000008862       0x6f ./libkernel.a(task_sync.o)
                                        0x7cb (size before relaxing)
 .debug_str     0x00000000000088d1       0x82 ./libkernel.a(task_term.o)
                                        0x789 (size before relaxing)
 .debug_str     0x0000000000008953       0xd6 ./libkernel.a(semaphore.o)
                                        0x963 (size before relaxing)
 .debug_str     0x0000000000008a29       0xa0 ./libkernel.a(sys_manage.o)
                                        0x77d (size before relaxing)
 .debug_str     0x0000000000008ac9       0xb2 ./libkernel.a(interrupt.o)
                                        0x89b (size before relaxing)
 .debug_str     0x0000000000008b7b       0xf2 ./libkernel.a(wait.o)
                                        0x8f8 (size before relaxing)

.debug_frame    0x0000000000000000     0x5828
 .debug_frame   0x0000000000000000       0x98 log_output.o
 .debug_frame   0x0000000000000098      0x238 blinky.o
 .debug_frame   0x00000000000002d0       0x30 tTask_tecsgen.o
 .debug_frame   0x0000000000000300       0x30 tSemaphore_tecsgen.o
 .debug_frame   0x0000000000000330       0x30 tInterruptRequest_tecsgen.o
 .debug_frame   0x0000000000000360       0x30 tISR_tecsgen.o
 .debug_frame   0x0000000000000390       0x30 tInitializeRoutine_tecsgen.o
 .debug_frame   0x00000000000003c0       0x30 tTerminateRoutine_tecsgen.o
 .debug_frame   0x00000000000003f0       0xf0 tSerialPortMain_tecsgen.o
 .debug_frame   0x00000000000004e0       0x30 tSerialAdapter_tecsgen.o
 .debug_frame   0x0000000000000510       0x30 tSysLog_tecsgen.o
 .debug_frame   0x0000000000000540       0x30 tSysLogAdapter_tecsgen.o
 .debug_frame   0x0000000000000570       0x30 tLogTaskMain_tecsgen.o
 .debug_frame   0x00000000000005a0       0x30 tBannerMain_tecsgen.o
 .debug_frame   0x00000000000005d0       0x30 tPutLogGRPeach_tecsgen.o
 .debug_frame   0x0000000000000600       0x70 tSCIF_tecsgen.o
 .debug_frame   0x0000000000000670       0x30 tSIOPortGRPeachMain_tecsgen.o
 .debug_frame   0x00000000000006a0       0x30 tTask.o
 .debug_frame   0x00000000000006d0       0x30 tISR.o
 .debug_frame   0x0000000000000700       0x30 tInitializeRoutine.o
 .debug_frame   0x0000000000000730       0x30 tTerminateRoutine.o
 .debug_frame   0x0000000000000760      0x358 tSerialPortMain.o
 .debug_frame   0x0000000000000ab8      0x190 tSysLog.o
 .debug_frame   0x0000000000000c48       0xac tSysLogAdapter.o
 .debug_frame   0x0000000000000cf4       0xcc tLogTaskMain.o
 .debug_frame   0x0000000000000dc0       0x50 tBannerMain.o
 .debug_frame   0x0000000000000e10       0xac tPutLogGRPeach.o
 .debug_frame   0x0000000000000ebc      0x294 tSCIF.o
 .debug_frame   0x0000000000001150       0x2c init_tecs.o
 .debug_frame   0x000000000000117c       0xbc kernel_cfg.o
 .debug_frame   0x0000000000001238       0x50 libmbed.a(RZ_A1_Init.o)
 .debug_frame   0x0000000000001288      0x210 libmbed.a(mmu_Renesas_RZ_A1.o)
 .debug_frame   0x0000000000001498       0xd8 libmbed.a(system_MBRZA1H.o)
 .debug_frame   0x0000000000001570       0xec libmbed.a(gpio.o)
 .debug_frame   0x000000000000165c       0x2c libmbed.a(common.o)
 .debug_frame   0x0000000000001688       0xb8 libmbed.a(Timeout.o)
 .debug_frame   0x0000000000001740       0xd4 libmbed.a(TimerEvent.o)
 .debug_frame   0x0000000000001814      0x378 libmbed.a(retarget.o)
 .debug_frame   0x0000000000001b8c       0xd4 libmbed.a(Ticker.o)
 .debug_frame   0x0000000000001c60      0x2b4 libmbed.a(SoftPWM.o)
 .debug_frame   0x0000000000001f14      0x258 libmbed.a(gic.o)
 .debug_frame   0x000000000000216c       0xfc libmbed.a(pl310.o)
 .debug_frame   0x0000000000002268       0x78 libmbed.a(gpio_api.o)
 .debug_frame   0x00000000000022e0       0x40 libmbed.a(pinmap.o)
 .debug_frame   0x0000000000002320       0x28 libmbed.a(board.o)
 .debug_frame   0x0000000000002348       0x38 libmbed.a(us_ticker_api.o)
 .debug_frame   0x0000000000002380       0x64 libmbed.a(wait_api.o)
 .debug_frame   0x00000000000023e4       0xb8 libmbed.a(ticker_api.o)
 .debug_frame   0x000000000000249c       0xcc libmbed.a(us_ticker.o)
 .debug_frame   0x0000000000002568      0x160 ./libkernel.a(target_kernel_impl.o)
 .debug_frame   0x00000000000026c8      0x344 ./libkernel.a(chip_kernel_impl.o)
 .debug_frame   0x0000000000002a0c       0xe4 ./libkernel.a(gic_kernel_impl.o)
 .debug_frame   0x0000000000002af0      0x1a8 ./libkernel.a(chip_timer.o)
 .debug_frame   0x0000000000002c98      0x1e4 ./libkernel.a(core_kernel_impl.o)
 .debug_frame   0x0000000000002e7c      0x188 ./libkernel.a(arm.o)
 .debug_frame   0x0000000000003004       0xe4 ./libkernel.a(startup.o)
 .debug_frame   0x00000000000030e8      0x36c ./libkernel.a(task.o)
 .debug_frame   0x0000000000003454      0x344 ./libkernel.a(time_event.o)
 .debug_frame   0x0000000000003798      0x2c4 ./libkernel.a(task_sync.o)
 .debug_frame   0x0000000000003a5c      0x2d8 ./libkernel.a(task_term.o)
 .debug_frame   0x0000000000003d34      0x284 ./libkernel.a(semaphore.o)
 .debug_frame   0x0000000000003fb8      0x2f8 ./libkernel.a(sys_manage.o)
 .debug_frame   0x00000000000042b0      0x458 ./libkernel.a(interrupt.o)
 .debug_frame   0x0000000000004708      0x308 ./libkernel.a(wait.o)
 .debug_frame   0x0000000000004a10       0x20 /opt/Atollic_TrueSTUDIO_for_ARM_x86_64_8.0.0/ARMTools/bin/../lib/gcc/arm-atollic-eabi/6.3.1/armv7-ar/thumb/fpu/libgcc.a(_udivsi3.o)
 .debug_frame   0x0000000000004a30       0x20 /opt/Atollic_TrueSTUDIO_for_ARM_x86_64_8.0.0/ARMTools/bin/../lib/gcc/arm-atollic-eabi/6.3.1/armv7-ar/thumb/fpu/libgcc.a(_divsi3.o)
 .debug_frame   0x0000000000004a50       0xac /opt/Atollic_TrueSTUDIO_for_ARM_x86_64_8.0.0/ARMTools/bin/../lib/gcc/arm-atollic-eabi/6.3.1/armv7-ar/thumb/fpu/libgcc.a(_arm_addsubdf3.o)
 .debug_frame   0x0000000000004afc       0x20 /opt/Atollic_TrueSTUDIO_for_ARM_x86_64_8.0.0/ARMTools/bin/../lib/gcc/arm-atollic-eabi/6.3.1/armv7-ar/thumb/fpu/libgcc.a(_fixunsdfdi.o)
 .debug_frame   0x0000000000004b1c       0x20 /opt/Atollic_TrueSTUDIO_for_ARM_x86_64_8.0.0/ARMTools/bin/../lib/gcc/arm-atollic-eabi/6.3.1/../../../../arm-atollic-eabi/lib/armv7-ar/thumb/fpu/libstdc++_nano.a(del_op.o)
 .debug_frame   0x0000000000004b3c       0x20 /opt/Atollic_TrueSTUDIO_for_ARM_x86_64_8.0.0/ARMTools/bin/../lib/gcc/arm-atollic-eabi/6.3.1/../../../../arm-atollic-eabi/lib/armv7-ar/thumb/fpu/libstdc++_nano.a(atexit_arm.o)
 .debug_frame   0x0000000000004b5c       0x28 /opt/Atollic_TrueSTUDIO_for_ARM_x86_64_8.0.0/ARMTools/bin/../lib/gcc/arm-atollic-eabi/6.3.1/../../../../arm-atollic-eabi/lib/armv7-ar/thumb/fpu/libc_nano.a(lib_a-cxa_atexit.o)
 .debug_frame   0x0000000000004b84       0x28 /opt/Atollic_TrueSTUDIO_for_ARM_x86_64_8.0.0/ARMTools/bin/../lib/gcc/arm-atollic-eabi/6.3.1/../../../../arm-atollic-eabi/lib/armv7-ar/thumb/fpu/libc_nano.a(lib_a-exit.o)
 .debug_frame   0x0000000000004bac      0x11c /opt/Atollic_TrueSTUDIO_for_ARM_x86_64_8.0.0/ARMTools/bin/../lib/gcc/arm-atollic-eabi/6.3.1/../../../../arm-atollic-eabi/lib/armv7-ar/thumb/fpu/libc_nano.a(lib_a-findfp.o)
 .debug_frame   0x0000000000004cc8       0x30 /opt/Atollic_TrueSTUDIO_for_ARM_x86_64_8.0.0/ARMTools/bin/../lib/gcc/arm-atollic-eabi/6.3.1/../../../../arm-atollic-eabi/lib/armv7-ar/thumb/fpu/libc_nano.a(lib_a-malloc.o)
 .debug_frame   0x0000000000004cf8       0x28 /opt/Atollic_TrueSTUDIO_for_ARM_x86_64_8.0.0/ARMTools/bin/../lib/gcc/arm-atollic-eabi/6.3.1/../../../../arm-atollic-eabi/lib/armv7-ar/thumb/fpu/libc_nano.a(lib_a-memchr-stub.o)
 .debug_frame   0x0000000000004d20       0x28 /opt/Atollic_TrueSTUDIO_for_ARM_x86_64_8.0.0/ARMTools/bin/../lib/gcc/arm-atollic-eabi/6.3.1/../../../../arm-atollic-eabi/lib/armv7-ar/thumb/fpu/libc_nano.a(lib_a-memcpy-stub.o)
 .debug_frame   0x0000000000004d48       0x20 /opt/Atollic_TrueSTUDIO_for_ARM_x86_64_8.0.0/ARMTools/bin/../lib/gcc/arm-atollic-eabi/6.3.1/../../../../arm-atollic-eabi/lib/armv7-ar/thumb/fpu/libc_nano.a(lib_a-memset.o)
 .debug_frame   0x0000000000004d68       0x38 /opt/Atollic_TrueSTUDIO_for_ARM_x86_64_8.0.0/ARMTools/bin/../lib/gcc/arm-atollic-eabi/6.3.1/../../../../arm-atollic-eabi/lib/armv7-ar/thumb/fpu/libc_nano.a(lib_a-nano-freer.o)
 .debug_frame   0x0000000000004da0       0x2c /opt/Atollic_TrueSTUDIO_for_ARM_x86_64_8.0.0/ARMTools/bin/../lib/gcc/arm-atollic-eabi/6.3.1/../../../../arm-atollic-eabi/lib/armv7-ar/thumb/fpu/libc_nano.a(lib_a-nano-mallocr.o)
 .debug_frame   0x0000000000004dcc       0xa0 /opt/Atollic_TrueSTUDIO_for_ARM_x86_64_8.0.0/ARMTools/bin/../lib/gcc/arm-atollic-eabi/6.3.1/../../../../arm-atollic-eabi/lib/armv7-ar/thumb/fpu/libc_nano.a(lib_a-nano-vfprintf_float.o)
 .debug_frame   0x0000000000004e6c       0x64 /opt/Atollic_TrueSTUDIO_for_ARM_x86_64_8.0.0/ARMTools/bin/../lib/gcc/arm-atollic-eabi/6.3.1/../../../../arm-atollic-eabi/lib/armv7-ar/thumb/fpu/libc_nano.a(lib_a-nano-vfprintf_i.o)
 .debug_frame   0x0000000000004ed0       0x40 /opt/Atollic_TrueSTUDIO_for_ARM_x86_64_8.0.0/ARMTools/bin/../lib/gcc/arm-atollic-eabi/6.3.1/../../../../arm-atollic-eabi/lib/armv7-ar/thumb/fpu/libc_nano.a(lib_a-nano-vfscanf_float.o)
 .debug_frame   0x0000000000004f10       0x5c /opt/Atollic_TrueSTUDIO_for_ARM_x86_64_8.0.0/ARMTools/bin/../lib/gcc/arm-atollic-eabi/6.3.1/../../../../arm-atollic-eabi/lib/armv7-ar/thumb/fpu/libc_nano.a(lib_a-reent.o)
 .debug_frame   0x0000000000004f6c       0x2c /opt/Atollic_TrueSTUDIO_for_ARM_x86_64_8.0.0/ARMTools/bin/../lib/gcc/arm-atollic-eabi/6.3.1/../../../../arm-atollic-eabi/lib/armv7-ar/thumb/fpu/libc_nano.a(lib_a-sbrkr.o)
 .debug_frame   0x0000000000004f98       0x20 /opt/Atollic_TrueSTUDIO_for_ARM_x86_64_8.0.0/ARMTools/bin/../lib/gcc/arm-atollic-eabi/6.3.1/../../../../arm-atollic-eabi/lib/armv7-ar/thumb/fpu/libc_nano.a(lib_a-sf_nan.o)
 .debug_frame   0x0000000000004fb8       0x70 /opt/Atollic_TrueSTUDIO_for_ARM_x86_64_8.0.0/ARMTools/bin/../lib/gcc/arm-atollic-eabi/6.3.1/../../../../arm-atollic-eabi/lib/armv7-ar/thumb/fpu/libc_nano.a(lib_a-sprintf.o)
 .debug_frame   0x0000000000005028       0x28 /opt/Atollic_TrueSTUDIO_for_ARM_x86_64_8.0.0/ARMTools/bin/../lib/gcc/arm-atollic-eabi/6.3.1/../../../../arm-atollic-eabi/lib/armv7-ar/thumb/fpu/libc_nano.a(lib_a-strncmp.o)
 .debug_frame   0x0000000000005050      0x130 /opt/Atollic_TrueSTUDIO_for_ARM_x86_64_8.0.0/ARMTools/bin/../lib/gcc/arm-atollic-eabi/6.3.1/../../../../arm-atollic-eabi/lib/armv7-ar/thumb/fpu/libc_nano.a(lib_a-strtod.o)
 .debug_frame   0x0000000000005180       0x8c /opt/Atollic_TrueSTUDIO_for_ARM_x86_64_8.0.0/ARMTools/bin/../lib/gcc/arm-atollic-eabi/6.3.1/../../../../arm-atollic-eabi/lib/armv7-ar/thumb/fpu/libc_nano.a(lib_a-strtol.o)
 .debug_frame   0x000000000000520c       0x6c /opt/Atollic_TrueSTUDIO_for_ARM_x86_64_8.0.0/ARMTools/bin/../lib/gcc/arm-atollic-eabi/6.3.1/../../../../arm-atollic-eabi/lib/armv7-ar/thumb/fpu/libc_nano.a(lib_a-dtoa.o)
 .debug_frame   0x0000000000005278       0x70 /opt/Atollic_TrueSTUDIO_for_ARM_x86_64_8.0.0/ARMTools/bin/../lib/gcc/arm-atollic-eabi/6.3.1/../../../../arm-atollic-eabi/lib/armv7-ar/thumb/fpu/libc_nano.a(lib_a-gdtoa-gethex.o)
 .debug_frame   0x00000000000052e8       0x74 /opt/Atollic_TrueSTUDIO_for_ARM_x86_64_8.0.0/ARMTools/bin/../lib/gcc/arm-atollic-eabi/6.3.1/../../../../arm-atollic-eabi/lib/armv7-ar/thumb/fpu/libc_nano.a(lib_a-gdtoa-hexnan.o)
 .debug_frame   0x000000000000535c       0x68 /opt/Atollic_TrueSTUDIO_for_ARM_x86_64_8.0.0/ARMTools/bin/../lib/gcc/arm-atollic-eabi/6.3.1/../../../../arm-atollic-eabi/lib/armv7-ar/thumb/fpu/libc_nano.a(lib_a-locale.o)
 .debug_frame   0x00000000000053c4       0x40 /opt/Atollic_TrueSTUDIO_for_ARM_x86_64_8.0.0/ARMTools/bin/../lib/gcc/arm-atollic-eabi/6.3.1/../../../../arm-atollic-eabi/lib/armv7-ar/thumb/fpu/libc_nano.a(lib_a-localeconv.o)
 .debug_frame   0x0000000000005404       0x48 /opt/Atollic_TrueSTUDIO_for_ARM_x86_64_8.0.0/ARMTools/bin/../lib/gcc/arm-atollic-eabi/6.3.1/../../../../arm-atollic-eabi/lib/armv7-ar/thumb/fpu/libc_nano.a(lib_a-mbtowc_r.o)
 .debug_frame   0x000000000000544c       0x30 /opt/Atollic_TrueSTUDIO_for_ARM_x86_64_8.0.0/ARMTools/bin/../lib/gcc/arm-atollic-eabi/6.3.1/../../../../arm-atollic-eabi/lib/armv7-ar/thumb/fpu/libc_nano.a(lib_a-mlock.o)
 .debug_frame   0x000000000000547c      0x230 /opt/Atollic_TrueSTUDIO_for_ARM_x86_64_8.0.0/ARMTools/bin/../lib/gcc/arm-atollic-eabi/6.3.1/../../../../arm-atollic-eabi/lib/armv7-ar/thumb/fpu/libc_nano.a(lib_a-mprec.o)
 .debug_frame   0x00000000000056ac       0x2c /opt/Atollic_TrueSTUDIO_for_ARM_x86_64_8.0.0/ARMTools/bin/../lib/gcc/arm-atollic-eabi/6.3.1/../../../../arm-atollic-eabi/lib/armv7-ar/thumb/fpu/libc_nano.a(lib_a-nano-callocr.o)
 .debug_frame   0x00000000000056d8       0x90 /opt/Atollic_TrueSTUDIO_for_ARM_x86_64_8.0.0/ARMTools/bin/../lib/gcc/arm-atollic-eabi/6.3.1/../../../../arm-atollic-eabi/lib/armv7-ar/thumb/fpu/libc_nano.a(lib_a-nano-svfprintf.o)
 .debug_frame   0x0000000000005768       0x3c /opt/Atollic_TrueSTUDIO_for_ARM_x86_64_8.0.0/ARMTools/bin/../lib/gcc/arm-atollic-eabi/6.3.1/../../../../arm-atollic-eabi/lib/armv7-ar/thumb/fpu/libc_nano.a(lib_a-wctomb_r.o)
 .debug_frame   0x00000000000057a4       0x28 /opt/Atollic_TrueSTUDIO_for_ARM_x86_64_8.0.0/ARMTools/bin/../lib/gcc/arm-atollic-eabi/6.3.1/../../../../arm-atollic-eabi/lib/armv7-ar/thumb/fpu/libc_nano.a(lib_a-memmove.o)
 .debug_frame   0x00000000000057cc       0x3c /opt/Atollic_TrueSTUDIO_for_ARM_x86_64_8.0.0/ARMTools/bin/../lib/gcc/arm-atollic-eabi/6.3.1/../../../../arm-atollic-eabi/lib/armv7-ar/thumb/fpu/libc_nano.a(lib_a-nano-reallocr.o)
 .debug_frame   0x0000000000005808       0x20 /opt/Atollic_TrueSTUDIO_for_ARM_x86_64_8.0.0/ARMTools/bin/../lib/gcc/arm-atollic-eabi/6.3.1/../../../../arm-atollic-eabi/lib/armv7-ar/thumb/fpu/libc_nano.a(lib_a-nano-msizer.o)

.debug_ranges   0x0000000000000000      0x708
 .debug_ranges  0x0000000000000000       0xb0 blinky.o
 .debug_ranges  0x00000000000000b0       0x28 libmbed.a(RZ_A1_Init.o)
 .debug_ranges  0x00000000000000d8       0xa8 libmbed.a(mmu_Renesas_RZ_A1.o)
 .debug_ranges  0x0000000000000180       0x48 libmbed.a(system_MBRZA1H.o)
 .debug_ranges  0x00000000000001c8       0x48 libmbed.a(gpio.o)
 .debug_ranges  0x0000000000000210       0x10 libmbed.a(common.o)
 .debug_ranges  0x0000000000000220       0x38 libmbed.a(Timeout.o)
 .debug_ranges  0x0000000000000258       0x40 libmbed.a(TimerEvent.o)
 .debug_ranges  0x0000000000000298      0x110 libmbed.a(retarget.o)
 .debug_ranges  0x00000000000003a8       0x40 libmbed.a(Ticker.o)
 .debug_ranges  0x00000000000003e8       0xd0 libmbed.a(SoftPWM.o)
 .debug_ranges  0x00000000000004b8       0xd8 libmbed.a(gic.o)
 .debug_ranges  0x0000000000000590       0x58 libmbed.a(pl310.o)
 .debug_ranges  0x00000000000005e8       0x28 libmbed.a(gpio_api.o)
 .debug_ranges  0x0000000000000610       0x18 libmbed.a(pinmap.o)
 .debug_ranges  0x0000000000000628       0x10 libmbed.a(board.o)
 .debug_ranges  0x0000000000000638       0x18 libmbed.a(us_ticker_api.o)
 .debug_ranges  0x0000000000000650       0x20 libmbed.a(wait_api.o)
 .debug_ranges  0x0000000000000670       0x38 libmbed.a(ticker_api.o)
 .debug_ranges  0x00000000000006a8       0x40 libmbed.a(us_ticker.o)
 .debug_ranges  0x00000000000006e8       0x20 ./libkernel.a(core_support.o)

.stabstr        0x0000000000000000       0x76
 .stabstr       0x0000000000000000       0x76 /opt/Atollic_TrueSTUDIO_for_ARM_x86_64_8.0.0/ARMTools/bin/../lib/gcc/arm-atollic-eabi/6.3.1/../../../../arm-atollic-eabi/lib/armv7-ar/thumb/fpu/libnosys.a(getpid.o)

Cross Reference Table

Symbol                                            File
CDAbtHandler                                      libmbed.a(system_MBRZA1H.o)
                                                  libmbed.a(startup_RZ1AH.o)
CPAbtHandler                                      libmbed.a(system_MBRZA1H.o)
                                                  libmbed.a(startup_RZ1AH.o)
CUndefHandler                                     libmbed.a(system_MBRZA1H.o)
                                                  libmbed.a(startup_RZ1AH.o)
DAbt_Handler                                      libmbed.a(startup_RZ1AH.o)
FIQ_Handler                                       libmbed.a(startup_RZ1AH.o)
FPUEnable                                         libmbed.a(system_MBRZA1H.o)
GICDistributor_BASE                               libmbed.a(gic.o)
GICInterface_BASE                                 libmbed.a(gic.o)
GIC_AcknowledgePending                            libmbed.a(gic.o)
GIC_CPUInterfaceInit                              libmbed.a(gic.o)
GIC_ClearPendingIRQ                               libmbed.a(gic.o)
                                                  libmbed.a(us_ticker.o)
GIC_DisableDistributor                            libmbed.a(gic.o)
GIC_DisableIRQ                                    libmbed.a(gic.o)
                                                  libmbed.a(us_ticker.o)
                                                  libmbed.a(serial_api.o)
GIC_DisableInterface                              libmbed.a(gic.o)
GIC_DistInit                                      libmbed.a(gic.o)
GIC_DistributorImplementer                        libmbed.a(gic.o)
GIC_DistributorInfo                               libmbed.a(gic.o)
GIC_Enable                                        libmbed.a(gic.o)
                                                  libmbed.a(system_MBRZA1H.o)
GIC_EnableDistributor                             libmbed.a(gic.o)
GIC_EnableIRQ                                     libmbed.a(gic.o)
                                                  libmbed.a(us_ticker.o)
                                                  libmbed.a(serial_api.o)
GIC_EnableInterface                               libmbed.a(gic.o)
GIC_EndInterrupt                                  libmbed.a(gic.o)
GIC_GetBinaryPoint                                libmbed.a(gic.o)
GIC_GetIRQStatus                                  libmbed.a(gic.o)
GIC_GetPriority                                   libmbed.a(gic.o)
GIC_GetTarget                                     libmbed.a(gic.o)
GIC_InterfacePriorityMask                         libmbed.a(gic.o)
GIC_SendSGI                                       libmbed.a(gic.o)
GIC_SetBinaryPoint                                libmbed.a(gic.o)
GIC_SetICDICFR                                    libmbed.a(gic.o)
GIC_SetLevelModel                                 libmbed.a(gic.o)
GIC_SetPendingIRQ                                 libmbed.a(gic.o)
                                                  libmbed.a(us_ticker.o)
GIC_SetPriority                                   libmbed.a(gic.o)
                                                  libmbed.a(us_ticker.o)
                                                  libmbed.a(serial_api.o)
GIC_SetTarget                                     libmbed.a(gic.o)
IRQCount                                          libmbed.a(system_MBRZA1H.o)
                                                  libmbed.a(startup_RZ1AH.o)
IRQNestLevel                                      libmbed.a(system_MBRZA1H.o)
                                                  libmbed.a(startup_RZ1AH.o)
IRQTable                                          libmbed.a(system_MBRZA1H.o)
                                                  libmbed.a(startup_RZ1AH.o)
IRQ_Handler                                       libmbed.a(startup_RZ1AH.o)
Image$$RO_DATA$$Base                              libmbed.a(mmu_Renesas_RZ_A1.o)
Image$$RO_DATA$$Limit                             libmbed.a(mmu_Renesas_RZ_A1.o)
Image$$RW_DATA$$Base                              libmbed.a(mmu_Renesas_RZ_A1.o)
Image$$RW_DATA$$Limit                             libmbed.a(mmu_Renesas_RZ_A1.o)
Image$$RW_DATA_NC$$Base                           libmbed.a(mmu_Renesas_RZ_A1.o)
Image$$RW_DATA_NC$$Limit                          libmbed.a(mmu_Renesas_RZ_A1.o)
Image$$TTB$$ZI$$Base                              libmbed.a(mmu_Renesas_RZ_A1.o)
Image$$VECTORS$$Base                              libmbed.a(mmu_Renesas_RZ_A1.o)
Image$$VECTORS$$Limit                             libmbed.a(mmu_Renesas_RZ_A1.o)
Image$$ZI_DATA$$Base                              libmbed.a(mmu_Renesas_RZ_A1.o)
Image$$ZI_DATA$$Limit                             libmbed.a(mmu_Renesas_RZ_A1.o)
Image$$ZI_DATA_NC$$Base                           libmbed.a(mmu_Renesas_RZ_A1.o)
Image$$ZI_DATA_NC$$Limit                          libmbed.a(mmu_Renesas_RZ_A1.o)
InitMemorySubsystem                               libmbed.a(system_MBRZA1H.o)
                                                  libmbed.a(startup_RZ1AH.o)
InterruptHandlerRegister                          libmbed.a(system_MBRZA1H.o)
                                                  libmbed.a(us_ticker.o)
                                                  libmbed.a(serial_api.o)
InterruptHandlerUnregister                        libmbed.a(system_MBRZA1H.o)
PAbt_Handler                                      libmbed.a(startup_RZ1AH.o)
PL310_CleanInvAllByWay                            libmbed.a(pl310.o)
PL310_CleanInvPa                                  libmbed.a(pl310.o)
PL310_CleanPa                                     libmbed.a(pl310.o)
PL310_Disable                                     libmbed.a(pl310.o)
PL310_Enable                                      libmbed.a(pl310.o)
                                                  libmbed.a(system_MBRZA1H.o)
PL310_GetID                                       libmbed.a(pl310.o)
                                                  libmbed.a(system_MBRZA1H.o)
PL310_GetType                                     libmbed.a(pl310.o)
PL310_InvAllByWay                                 libmbed.a(pl310.o)
                                                  libmbed.a(system_MBRZA1H.o)
PL310_InvPa                                       libmbed.a(pl310.o)
PL310_Sync                                        libmbed.a(pl310.o)
RZ_A1_InitBus                                     libmbed.a(RZ_A1_Init.o)
                                                  libmbed.a(system_MBRZA1H.o)
RZ_A1_InitClock                                   libmbed.a(RZ_A1_Init.o)
                                                  libmbed.a(system_MBRZA1H.o)
RZ_A1_IsClockMode0                                libmbed.a(RZ_A1_Init.o)
                                                  libmbed.a(us_ticker.o)
RZ_A1_SetSramWriteEnable                          libmbed.a(RZ_A1_Init.o)
                                                  libmbed.a(startup_RZ1AH.o)
Reset_Handler                                     libmbed.a(startup_RZ1AH.o)
SIOPortTarget1_SCIF_eiRxISR_des                   tSCIF_tecsgen.o
                                                  tISR_tecsgen.o
SIOPortTarget1_SCIF_eiTxISR_des                   tSCIF_tecsgen.o
                                                  tISR_tecsgen.o
SVC_Handler                                       libmbed.a(startup_RZ1AH.o)
SerialAdapter_cSerialPort                         tSerialAdapter_tecsgen.o
SerialPort1_SerialPortMain_eSerialPort_des        tSerialPortMain_tecsgen.o
                                                  tSerialAdapter_tecsgen.o
SoftPWM::SoftPWM(PinName, bool)                   libmbed.a(SoftPWM.o)
SoftPWM::SoftPWM(PinName, bool)                   libmbed.a(SoftPWM.o)
                                                  blinky.o
SoftPWM::TickerInterrapt()                        libmbed.a(SoftPWM.o)
SoftPWM::end()                                    libmbed.a(SoftPWM.o)
SoftPWM::operator=(float)                         blinky.o
SoftPWM::period(float)                            libmbed.a(SoftPWM.o)
SoftPWM::period_ms(int)                           libmbed.a(SoftPWM.o)
                                                  blinky.o
SoftPWM::period_us(int)                           libmbed.a(SoftPWM.o)
SoftPWM::pulsewidth(float)                        libmbed.a(SoftPWM.o)
SoftPWM::pulsewidth_ms(int)                       libmbed.a(SoftPWM.o)
SoftPWM::pulsewidth_us(int)                       libmbed.a(SoftPWM.o)
SoftPWM::read()                                   libmbed.a(SoftPWM.o)
SoftPWM::start()                                  libmbed.a(SoftPWM.o)
SoftPWM::stop()                                   libmbed.a(SoftPWM.o)
SoftPWM::write(float)                             libmbed.a(SoftPWM.o)
SoftPWM::~SoftPWM()                               blinky.o
SoftPWM::~SoftPWM()                               blinky.o
SystemInit                                        libmbed.a(system_MBRZA1H.o)
                                                  libmbed.a(startup_RZ1AH.o)
Undef_Handler                                     libmbed.a(startup_RZ1AH.o)
_Balloc                                           /opt/Atollic_TrueSTUDIO_for_ARM_x86_64_8.0.0/ARMTools/bin/../lib/gcc/arm-atollic-eabi/6.3.1/../../../../arm-atollic-eabi/lib/armv7-ar/thumb/fpu/libc_nano.a(lib_a-mprec.o)
                                                  /opt/Atollic_TrueSTUDIO_for_ARM_x86_64_8.0.0/ARMTools/bin/../lib/gcc/arm-atollic-eabi/6.3.1/../../../../arm-atollic-eabi/lib/armv7-ar/thumb/fpu/libc_nano.a(lib_a-gdtoa-gethex.o)
                                                  /opt/Atollic_TrueSTUDIO_for_ARM_x86_64_8.0.0/ARMTools/bin/../lib/gcc/arm-atollic-eabi/6.3.1/../../../../arm-atollic-eabi/lib/armv7-ar/thumb/fpu/libc_nano.a(lib_a-dtoa.o)
                                                  /opt/Atollic_TrueSTUDIO_for_ARM_x86_64_8.0.0/ARMTools/bin/../lib/gcc/arm-atollic-eabi/6.3.1/../../../../arm-atollic-eabi/lib/armv7-ar/thumb/fpu/libc_nano.a(lib_a-strtod.o)
_Bfree                                            /opt/Atollic_TrueSTUDIO_for_ARM_x86_64_8.0.0/ARMTools/bin/../lib/gcc/arm-atollic-eabi/6.3.1/../../../../arm-atollic-eabi/lib/armv7-ar/thumb/fpu/libc_nano.a(lib_a-mprec.o)
                                                  /opt/Atollic_TrueSTUDIO_for_ARM_x86_64_8.0.0/ARMTools/bin/../lib/gcc/arm-atollic-eabi/6.3.1/../../../../arm-atollic-eabi/lib/armv7-ar/thumb/fpu/libc_nano.a(lib_a-gdtoa-gethex.o)
                                                  /opt/Atollic_TrueSTUDIO_for_ARM_x86_64_8.0.0/ARMTools/bin/../lib/gcc/arm-atollic-eabi/6.3.1/../../../../arm-atollic-eabi/lib/armv7-ar/thumb/fpu/libc_nano.a(lib_a-dtoa.o)
                                                  /opt/Atollic_TrueSTUDIO_for_ARM_x86_64_8.0.0/ARMTools/bin/../lib/gcc/arm-atollic-eabi/6.3.1/../../../../arm-atollic-eabi/lib/armv7-ar/thumb/fpu/libc_nano.a(lib_a-strtod.o)
_PathLocale                                       /opt/Atollic_TrueSTUDIO_for_ARM_x86_64_8.0.0/ARMTools/bin/../lib/gcc/arm-atollic-eabi/6.3.1/../../../../arm-atollic-eabi/lib/armv7-ar/thumb/fpu/libc_nano.a(lib_a-locale.o)
__HeapBase                                        libmbed.a(startup_RZ1AH.o)
__HeapLimit                                       libmbed.a(startup_RZ1AH.o)
                                                  libmbed.a(retarget.o)
__StackLimit                                      libmbed.a(startup_RZ1AH.o)
__StackTop                                        libmbed.a(startup_RZ1AH.o)
__adddf3                                          /opt/Atollic_TrueSTUDIO_for_ARM_x86_64_8.0.0/ARMTools/bin/../lib/gcc/arm-atollic-eabi/6.3.1/armv7-ar/thumb/fpu/libgcc.a(_arm_addsubdf3.o)
__aeabi_atexit                                    /opt/Atollic_TrueSTUDIO_for_ARM_x86_64_8.0.0/ARMTools/bin/../lib/gcc/arm-atollic-eabi/6.3.1/../../../../arm-atollic-eabi/lib/armv7-ar/thumb/fpu/libstdc++_nano.a(atexit_arm.o)
                                                  blinky.o
__aeabi_d2ulz                                     /opt/Atollic_TrueSTUDIO_for_ARM_x86_64_8.0.0/ARMTools/bin/../lib/gcc/arm-atollic-eabi/6.3.1/armv7-ar/thumb/fpu/libgcc.a(_fixunsdfdi.o)
                                                  libmbed.a(us_ticker.o)
__aeabi_dadd                                      /opt/Atollic_TrueSTUDIO_for_ARM_x86_64_8.0.0/ARMTools/bin/../lib/gcc/arm-atollic-eabi/6.3.1/armv7-ar/thumb/fpu/libgcc.a(_arm_addsubdf3.o)
__aeabi_drsub                                     /opt/Atollic_TrueSTUDIO_for_ARM_x86_64_8.0.0/ARMTools/bin/../lib/gcc/arm-atollic-eabi/6.3.1/armv7-ar/thumb/fpu/libgcc.a(_arm_addsubdf3.o)
__aeabi_dsub                                      /opt/Atollic_TrueSTUDIO_for_ARM_x86_64_8.0.0/ARMTools/bin/../lib/gcc/arm-atollic-eabi/6.3.1/armv7-ar/thumb/fpu/libgcc.a(_arm_addsubdf3.o)
__aeabi_f2d                                       /opt/Atollic_TrueSTUDIO_for_ARM_x86_64_8.0.0/ARMTools/bin/../lib/gcc/arm-atollic-eabi/6.3.1/armv7-ar/thumb/fpu/libgcc.a(_arm_addsubdf3.o)
__aeabi_i2d                                       /opt/Atollic_TrueSTUDIO_for_ARM_x86_64_8.0.0/ARMTools/bin/../lib/gcc/arm-atollic-eabi/6.3.1/armv7-ar/thumb/fpu/libgcc.a(_arm_addsubdf3.o)
__aeabi_idiv                                      /opt/Atollic_TrueSTUDIO_for_ARM_x86_64_8.0.0/ARMTools/bin/../lib/gcc/arm-atollic-eabi/6.3.1/armv7-ar/thumb/fpu/libgcc.a(_divsi3.o)
                                                  /opt/Atollic_TrueSTUDIO_for_ARM_x86_64_8.0.0/ARMTools/bin/../lib/gcc/arm-atollic-eabi/6.3.1/../../../../arm-atollic-eabi/lib/armv7-ar/thumb/fpu/libc_nano.a(lib_a-mprec.o)
                                                  /opt/Atollic_TrueSTUDIO_for_ARM_x86_64_8.0.0/ARMTools/bin/../lib/gcc/arm-atollic-eabi/6.3.1/../../../../arm-atollic-eabi/lib/armv7-ar/thumb/fpu/libc_nano.a(lib_a-nano-vfprintf_float.o)
                                                  libmbed.a(serial_api.o)
__aeabi_idiv0                                     /opt/Atollic_TrueSTUDIO_for_ARM_x86_64_8.0.0/ARMTools/bin/../lib/gcc/arm-atollic-eabi/6.3.1/armv7-ar/thumb/fpu/libgcc.a(_dvmd_tls.o)
                                                  /opt/Atollic_TrueSTUDIO_for_ARM_x86_64_8.0.0/ARMTools/bin/../lib/gcc/arm-atollic-eabi/6.3.1/armv7-ar/thumb/fpu/libgcc.a(_divsi3.o)
                                                  /opt/Atollic_TrueSTUDIO_for_ARM_x86_64_8.0.0/ARMTools/bin/../lib/gcc/arm-atollic-eabi/6.3.1/armv7-ar/thumb/fpu/libgcc.a(_udivsi3.o)
__aeabi_idivmod                                   /opt/Atollic_TrueSTUDIO_for_ARM_x86_64_8.0.0/ARMTools/bin/../lib/gcc/arm-atollic-eabi/6.3.1/armv7-ar/thumb/fpu/libgcc.a(_divsi3.o)
                                                  /opt/Atollic_TrueSTUDIO_for_ARM_x86_64_8.0.0/ARMTools/bin/../lib/gcc/arm-atollic-eabi/6.3.1/../../../../arm-atollic-eabi/lib/armv7-ar/thumb/fpu/libc_nano.a(lib_a-nano-vfprintf_float.o)
__aeabi_l2d                                       /opt/Atollic_TrueSTUDIO_for_ARM_x86_64_8.0.0/ARMTools/bin/../lib/gcc/arm-atollic-eabi/6.3.1/armv7-ar/thumb/fpu/libgcc.a(_arm_addsubdf3.o)
__aeabi_ldiv0                                     /opt/Atollic_TrueSTUDIO_for_ARM_x86_64_8.0.0/ARMTools/bin/../lib/gcc/arm-atollic-eabi/6.3.1/armv7-ar/thumb/fpu/libgcc.a(_dvmd_tls.o)
__aeabi_ui2d                                      /opt/Atollic_TrueSTUDIO_for_ARM_x86_64_8.0.0/ARMTools/bin/../lib/gcc/arm-atollic-eabi/6.3.1/armv7-ar/thumb/fpu/libgcc.a(_arm_addsubdf3.o)
__aeabi_uidiv                                     /opt/Atollic_TrueSTUDIO_for_ARM_x86_64_8.0.0/ARMTools/bin/../lib/gcc/arm-atollic-eabi/6.3.1/armv7-ar/thumb/fpu/libgcc.a(_udivsi3.o)
                                                  /opt/Atollic_TrueSTUDIO_for_ARM_x86_64_8.0.0/ARMTools/bin/../lib/gcc/arm-atollic-eabi/6.3.1/../../../../arm-atollic-eabi/lib/armv7-ar/thumb/fpu/libc_nano.a(lib_a-strtoul.o)
                                                  /opt/Atollic_TrueSTUDIO_for_ARM_x86_64_8.0.0/ARMTools/bin/../lib/gcc/arm-atollic-eabi/6.3.1/../../../../arm-atollic-eabi/lib/armv7-ar/thumb/fpu/libc_nano.a(lib_a-dtoa.o)
                                                  /opt/Atollic_TrueSTUDIO_for_ARM_x86_64_8.0.0/ARMTools/bin/../lib/gcc/arm-atollic-eabi/6.3.1/../../../../arm-atollic-eabi/lib/armv7-ar/thumb/fpu/libc_nano.a(lib_a-strtol.o)
                                                  /opt/Atollic_TrueSTUDIO_for_ARM_x86_64_8.0.0/ARMTools/bin/../lib/gcc/arm-atollic-eabi/6.3.1/../../../../arm-atollic-eabi/lib/armv7-ar/thumb/fpu/libc_nano.a(lib_a-nano-vfprintf_i.o)
                                                  tSCIF.o
                                                  log_output.o
__aeabi_uidivmod                                  /opt/Atollic_TrueSTUDIO_for_ARM_x86_64_8.0.0/ARMTools/bin/../lib/gcc/arm-atollic-eabi/6.3.1/armv7-ar/thumb/fpu/libgcc.a(_udivsi3.o)
                                                  /opt/Atollic_TrueSTUDIO_for_ARM_x86_64_8.0.0/ARMTools/bin/../lib/gcc/arm-atollic-eabi/6.3.1/../../../../arm-atollic-eabi/lib/armv7-ar/thumb/fpu/libc_nano.a(lib_a-strtoul.o)
                                                  /opt/Atollic_TrueSTUDIO_for_ARM_x86_64_8.0.0/ARMTools/bin/../lib/gcc/arm-atollic-eabi/6.3.1/../../../../arm-atollic-eabi/lib/armv7-ar/thumb/fpu/libc_nano.a(lib_a-strtol.o)
                                                  /opt/Atollic_TrueSTUDIO_for_ARM_x86_64_8.0.0/ARMTools/bin/../lib/gcc/arm-atollic-eabi/6.3.1/../../../../arm-atollic-eabi/lib/armv7-ar/thumb/fpu/libc_nano.a(lib_a-nano-vfprintf_i.o)
                                                  log_output.o
__aeabi_ul2d                                      /opt/Atollic_TrueSTUDIO_for_ARM_x86_64_8.0.0/ARMTools/bin/../lib/gcc/arm-atollic-eabi/6.3.1/armv7-ar/thumb/fpu/libgcc.a(_arm_addsubdf3.o)
                                                  libmbed.a(us_ticker.o)
__any_on                                          /opt/Atollic_TrueSTUDIO_for_ARM_x86_64_8.0.0/ARMTools/bin/../lib/gcc/arm-atollic-eabi/6.3.1/../../../../arm-atollic-eabi/lib/armv7-ar/thumb/fpu/libc_nano.a(lib_a-mprec.o)
                                                  /opt/Atollic_TrueSTUDIO_for_ARM_x86_64_8.0.0/ARMTools/bin/../lib/gcc/arm-atollic-eabi/6.3.1/../../../../arm-atollic-eabi/lib/armv7-ar/thumb/fpu/libc_nano.a(lib_a-gdtoa-gethex.o)
__ascii_mbtowc                                    /opt/Atollic_TrueSTUDIO_for_ARM_x86_64_8.0.0/ARMTools/bin/../lib/gcc/arm-atollic-eabi/6.3.1/../../../../arm-atollic-eabi/lib/armv7-ar/thumb/fpu/libc_nano.a(lib_a-mbtowc_r.o)
                                                  /opt/Atollic_TrueSTUDIO_for_ARM_x86_64_8.0.0/ARMTools/bin/../lib/gcc/arm-atollic-eabi/6.3.1/../../../../arm-atollic-eabi/lib/armv7-ar/thumb/fpu/libc_nano.a(lib_a-locale.o)
__ascii_wctomb                                    /opt/Atollic_TrueSTUDIO_for_ARM_x86_64_8.0.0/ARMTools/bin/../lib/gcc/arm-atollic-eabi/6.3.1/../../../../arm-atollic-eabi/lib/armv7-ar/thumb/fpu/libc_nano.a(lib_a-wctomb_r.o)
                                                  /opt/Atollic_TrueSTUDIO_for_ARM_x86_64_8.0.0/ARMTools/bin/../lib/gcc/arm-atollic-eabi/6.3.1/../../../../arm-atollic-eabi/lib/armv7-ar/thumb/fpu/libc_nano.a(lib_a-locale.o)
__b2d                                             /opt/Atollic_TrueSTUDIO_for_ARM_x86_64_8.0.0/ARMTools/bin/../lib/gcc/arm-atollic-eabi/6.3.1/../../../../arm-atollic-eabi/lib/armv7-ar/thumb/fpu/libc_nano.a(lib_a-mprec.o)
__call_exitprocs                                  /opt/Atollic_TrueSTUDIO_for_ARM_x86_64_8.0.0/ARMTools/bin/../lib/gcc/arm-atollic-eabi/6.3.1/../../../../arm-atollic-eabi/lib/armv7-ar/thumb/fpu/libc_nano.a(lib_a-exit.o)
__copy_table_end__                                libmbed.a(startup_RZ1AH.o)
__copy_table_start__                              libmbed.a(startup_RZ1AH.o)
__copybits                                        /opt/Atollic_TrueSTUDIO_for_ARM_x86_64_8.0.0/ARMTools/bin/../lib/gcc/arm-atollic-eabi/6.3.1/../../../../arm-atollic-eabi/lib/armv7-ar/thumb/fpu/libc_nano.a(lib_a-mprec.o)
                                                  /opt/Atollic_TrueSTUDIO_for_ARM_x86_64_8.0.0/ARMTools/bin/../lib/gcc/arm-atollic-eabi/6.3.1/../../../../arm-atollic-eabi/lib/armv7-ar/thumb/fpu/libc_nano.a(lib_a-strtod.o)
__cvt                                             /opt/Atollic_TrueSTUDIO_for_ARM_x86_64_8.0.0/ARMTools/bin/../lib/gcc/arm-atollic-eabi/6.3.1/../../../../arm-atollic-eabi/lib/armv7-ar/thumb/fpu/libc_nano.a(lib_a-nano-vfprintf_float.o)
__cxa_atexit                                      /opt/Atollic_TrueSTUDIO_for_ARM_x86_64_8.0.0/ARMTools/bin/../lib/gcc/arm-atollic-eabi/6.3.1/../../../../arm-atollic-eabi/lib/armv7-ar/thumb/fpu/libc_nano.a(lib_a-cxa_atexit.o)
                                                  /opt/Atollic_TrueSTUDIO_for_ARM_x86_64_8.0.0/ARMTools/bin/../lib/gcc/arm-atollic-eabi/6.3.1/../../../../arm-atollic-eabi/lib/armv7-ar/thumb/fpu/libstdc++_nano.a(atexit_arm.o)
__cxa_atexit_dummy                                /opt/Atollic_TrueSTUDIO_for_ARM_x86_64_8.0.0/ARMTools/bin/../lib/gcc/arm-atollic-eabi/6.3.1/../../../../arm-atollic-eabi/lib/armv7-ar/thumb/fpu/libc_nano.a(lib_a-cxa_atexit.o)
__cxa_pure_virtual                                libmbed.a(retarget.o)
                                                  libmbed.a(FileSystemLike.o)
                                                  libmbed.a(TimerEvent.o)
__d2b                                             /opt/Atollic_TrueSTUDIO_for_ARM_x86_64_8.0.0/ARMTools/bin/../lib/gcc/arm-atollic-eabi/6.3.1/../../../../arm-atollic-eabi/lib/armv7-ar/thumb/fpu/libc_nano.a(lib_a-mprec.o)
                                                  /opt/Atollic_TrueSTUDIO_for_ARM_x86_64_8.0.0/ARMTools/bin/../lib/gcc/arm-atollic-eabi/6.3.1/../../../../arm-atollic-eabi/lib/armv7-ar/thumb/fpu/libc_nano.a(lib_a-dtoa.o)
                                                  /opt/Atollic_TrueSTUDIO_for_ARM_x86_64_8.0.0/ARMTools/bin/../lib/gcc/arm-atollic-eabi/6.3.1/../../../../arm-atollic-eabi/lib/armv7-ar/thumb/fpu/libc_nano.a(lib_a-strtod.o)
__divsi3                                          /opt/Atollic_TrueSTUDIO_for_ARM_x86_64_8.0.0/ARMTools/bin/../lib/gcc/arm-atollic-eabi/6.3.1/armv7-ar/thumb/fpu/libgcc.a(_divsi3.o)
__dso_handle                                      libmbed.a(common.o)
                                                  blinky.o
__end__                                           libmbed.a(retarget.o)
__errno                                           /opt/Atollic_TrueSTUDIO_for_ARM_x86_64_8.0.0/ARMTools/bin/../lib/gcc/arm-atollic-eabi/6.3.1/../../../../arm-atollic-eabi/lib/armv7-ar/thumb/fpu/libc_nano.a(lib_a-errno.o)
                                                  libmbed.a(retarget.o)
__exponent                                        /opt/Atollic_TrueSTUDIO_for_ARM_x86_64_8.0.0/ARMTools/bin/../lib/gcc/arm-atollic-eabi/6.3.1/../../../../arm-atollic-eabi/lib/armv7-ar/thumb/fpu/libc_nano.a(lib_a-nano-vfprintf_float.o)
__extendsfdf2                                     /opt/Atollic_TrueSTUDIO_for_ARM_x86_64_8.0.0/ARMTools/bin/../lib/gcc/arm-atollic-eabi/6.3.1/armv7-ar/thumb/fpu/libgcc.a(_arm_addsubdf3.o)
__fixunsdfdi                                      /opt/Atollic_TrueSTUDIO_for_ARM_x86_64_8.0.0/ARMTools/bin/../lib/gcc/arm-atollic-eabi/6.3.1/armv7-ar/thumb/fpu/libgcc.a(_fixunsdfdi.o)
__floatdidf                                       /opt/Atollic_TrueSTUDIO_for_ARM_x86_64_8.0.0/ARMTools/bin/../lib/gcc/arm-atollic-eabi/6.3.1/armv7-ar/thumb/fpu/libgcc.a(_arm_addsubdf3.o)
__floatsidf                                       /opt/Atollic_TrueSTUDIO_for_ARM_x86_64_8.0.0/ARMTools/bin/../lib/gcc/arm-atollic-eabi/6.3.1/armv7-ar/thumb/fpu/libgcc.a(_arm_addsubdf3.o)
__floatundidf                                     /opt/Atollic_TrueSTUDIO_for_ARM_x86_64_8.0.0/ARMTools/bin/../lib/gcc/arm-atollic-eabi/6.3.1/armv7-ar/thumb/fpu/libgcc.a(_arm_addsubdf3.o)
__floatunsidf                                     /opt/Atollic_TrueSTUDIO_for_ARM_x86_64_8.0.0/ARMTools/bin/../lib/gcc/arm-atollic-eabi/6.3.1/armv7-ar/thumb/fpu/libgcc.a(_arm_addsubdf3.o)
__fp_lock_all                                     /opt/Atollic_TrueSTUDIO_for_ARM_x86_64_8.0.0/ARMTools/bin/../lib/gcc/arm-atollic-eabi/6.3.1/../../../../arm-atollic-eabi/lib/armv7-ar/thumb/fpu/libc_nano.a(lib_a-findfp.o)
__fp_unlock_all                                   /opt/Atollic_TrueSTUDIO_for_ARM_x86_64_8.0.0/ARMTools/bin/../lib/gcc/arm-atollic-eabi/6.3.1/../../../../arm-atollic-eabi/lib/armv7-ar/thumb/fpu/libc_nano.a(lib_a-findfp.o)
__gethex                                          /opt/Atollic_TrueSTUDIO_for_ARM_x86_64_8.0.0/ARMTools/bin/../lib/gcc/arm-atollic-eabi/6.3.1/../../../../arm-atollic-eabi/lib/armv7-ar/thumb/fpu/libc_nano.a(lib_a-gdtoa-gethex.o)
                                                  /opt/Atollic_TrueSTUDIO_for_ARM_x86_64_8.0.0/ARMTools/bin/../lib/gcc/arm-atollic-eabi/6.3.1/../../../../arm-atollic-eabi/lib/armv7-ar/thumb/fpu/libc_nano.a(lib_a-strtod.o)
__global_locale                                   /opt/Atollic_TrueSTUDIO_for_ARM_x86_64_8.0.0/ARMTools/bin/../lib/gcc/arm-atollic-eabi/6.3.1/../../../../arm-atollic-eabi/lib/armv7-ar/thumb/fpu/libc_nano.a(lib_a-locale.o)
                                                  /opt/Atollic_TrueSTUDIO_for_ARM_x86_64_8.0.0/ARMTools/bin/../lib/gcc/arm-atollic-eabi/6.3.1/../../../../arm-atollic-eabi/lib/armv7-ar/thumb/fpu/libc_nano.a(lib_a-wctomb_r.o)
                                                  /opt/Atollic_TrueSTUDIO_for_ARM_x86_64_8.0.0/ARMTools/bin/../lib/gcc/arm-atollic-eabi/6.3.1/../../../../arm-atollic-eabi/lib/armv7-ar/thumb/fpu/libc_nano.a(lib_a-strtoul.o)
                                                  /opt/Atollic_TrueSTUDIO_for_ARM_x86_64_8.0.0/ARMTools/bin/../lib/gcc/arm-atollic-eabi/6.3.1/../../../../arm-atollic-eabi/lib/armv7-ar/thumb/fpu/libc_nano.a(lib_a-mbtowc_r.o)
                                                  /opt/Atollic_TrueSTUDIO_for_ARM_x86_64_8.0.0/ARMTools/bin/../lib/gcc/arm-atollic-eabi/6.3.1/../../../../arm-atollic-eabi/lib/armv7-ar/thumb/fpu/libc_nano.a(lib_a-localeconv.o)
                                                  /opt/Atollic_TrueSTUDIO_for_ARM_x86_64_8.0.0/ARMTools/bin/../lib/gcc/arm-atollic-eabi/6.3.1/../../../../arm-atollic-eabi/lib/armv7-ar/thumb/fpu/libc_nano.a(lib_a-strtol.o)
                                                  /opt/Atollic_TrueSTUDIO_for_ARM_x86_64_8.0.0/ARMTools/bin/../lib/gcc/arm-atollic-eabi/6.3.1/../../../../arm-atollic-eabi/lib/armv7-ar/thumb/fpu/libc_nano.a(lib_a-strtod.o)
__gnu_cxx::__verbose_terminate_handler()          libmbed.a(retarget.o)
__hexdig_fun                                      /opt/Atollic_TrueSTUDIO_for_ARM_x86_64_8.0.0/ARMTools/bin/../lib/gcc/arm-atollic-eabi/6.3.1/../../../../arm-atollic-eabi/lib/armv7-ar/thumb/fpu/libc_nano.a(lib_a-gdtoa-gethex.o)
                                                  /opt/Atollic_TrueSTUDIO_for_ARM_x86_64_8.0.0/ARMTools/bin/../lib/gcc/arm-atollic-eabi/6.3.1/../../../../arm-atollic-eabi/lib/armv7-ar/thumb/fpu/libc_nano.a(lib_a-gdtoa-hexnan.o)
__hexnan                                          /opt/Atollic_TrueSTUDIO_for_ARM_x86_64_8.0.0/ARMTools/bin/../lib/gcc/arm-atollic-eabi/6.3.1/../../../../arm-atollic-eabi/lib/armv7-ar/thumb/fpu/libc_nano.a(lib_a-gdtoa-hexnan.o)
                                                  /opt/Atollic_TrueSTUDIO_for_ARM_x86_64_8.0.0/ARMTools/bin/../lib/gcc/arm-atollic-eabi/6.3.1/../../../../arm-atollic-eabi/lib/armv7-ar/thumb/fpu/libc_nano.a(lib_a-strtod.o)
__hi0bits                                         /opt/Atollic_TrueSTUDIO_for_ARM_x86_64_8.0.0/ARMTools/bin/../lib/gcc/arm-atollic-eabi/6.3.1/../../../../arm-atollic-eabi/lib/armv7-ar/thumb/fpu/libc_nano.a(lib_a-mprec.o)
                                                  /opt/Atollic_TrueSTUDIO_for_ARM_x86_64_8.0.0/ARMTools/bin/../lib/gcc/arm-atollic-eabi/6.3.1/../../../../arm-atollic-eabi/lib/armv7-ar/thumb/fpu/libc_nano.a(lib_a-gdtoa-gethex.o)
                                                  /opt/Atollic_TrueSTUDIO_for_ARM_x86_64_8.0.0/ARMTools/bin/../lib/gcc/arm-atollic-eabi/6.3.1/../../../../arm-atollic-eabi/lib/armv7-ar/thumb/fpu/libc_nano.a(lib_a-dtoa.o)
__i2b                                             /opt/Atollic_TrueSTUDIO_for_ARM_x86_64_8.0.0/ARMTools/bin/../lib/gcc/arm-atollic-eabi/6.3.1/../../../../arm-atollic-eabi/lib/armv7-ar/thumb/fpu/libc_nano.a(lib_a-mprec.o)
                                                  /opt/Atollic_TrueSTUDIO_for_ARM_x86_64_8.0.0/ARMTools/bin/../lib/gcc/arm-atollic-eabi/6.3.1/../../../../arm-atollic-eabi/lib/armv7-ar/thumb/fpu/libc_nano.a(lib_a-dtoa.o)
                                                  /opt/Atollic_TrueSTUDIO_for_ARM_x86_64_8.0.0/ARMTools/bin/../lib/gcc/arm-atollic-eabi/6.3.1/../../../../arm-atollic-eabi/lib/armv7-ar/thumb/fpu/libc_nano.a(lib_a-strtod.o)
__init_array_end                                  libmbed.a(common.o)
__init_array_start                                libmbed.a(common.o)
__isr_vector                                      libmbed.a(startup_RZ1AH.o)
__lo0bits                                         /opt/Atollic_TrueSTUDIO_for_ARM_x86_64_8.0.0/ARMTools/bin/../lib/gcc/arm-atollic-eabi/6.3.1/../../../../arm-atollic-eabi/lib/armv7-ar/thumb/fpu/libc_nano.a(lib_a-mprec.o)
__locale_ctype_ptr                                /opt/Atollic_TrueSTUDIO_for_ARM_x86_64_8.0.0/ARMTools/bin/../lib/gcc/arm-atollic-eabi/6.3.1/../../../../arm-atollic-eabi/lib/armv7-ar/thumb/fpu/libc_nano.a(lib_a-locale.o)
                                                  /opt/Atollic_TrueSTUDIO_for_ARM_x86_64_8.0.0/ARMTools/bin/../lib/gcc/arm-atollic-eabi/6.3.1/../../../../arm-atollic-eabi/lib/armv7-ar/thumb/fpu/libc_nano.a(lib_a-nano-vfscanf_i.o)
                                                  /opt/Atollic_TrueSTUDIO_for_ARM_x86_64_8.0.0/ARMTools/bin/../lib/gcc/arm-atollic-eabi/6.3.1/../../../../arm-atollic-eabi/lib/armv7-ar/thumb/fpu/libc_nano.a(lib_a-nano-svfscanf.o)
__locale_ctype_ptr_l                              /opt/Atollic_TrueSTUDIO_for_ARM_x86_64_8.0.0/ARMTools/bin/../lib/gcc/arm-atollic-eabi/6.3.1/../../../../arm-atollic-eabi/lib/armv7-ar/thumb/fpu/libc_nano.a(lib_a-locale.o)
                                                  /opt/Atollic_TrueSTUDIO_for_ARM_x86_64_8.0.0/ARMTools/bin/../lib/gcc/arm-atollic-eabi/6.3.1/../../../../arm-atollic-eabi/lib/armv7-ar/thumb/fpu/libc_nano.a(lib_a-strtoul.o)
                                                  /opt/Atollic_TrueSTUDIO_for_ARM_x86_64_8.0.0/ARMTools/bin/../lib/gcc/arm-atollic-eabi/6.3.1/../../../../arm-atollic-eabi/lib/armv7-ar/thumb/fpu/libc_nano.a(lib_a-strtol.o)
__locale_mb_cur_max                               /opt/Atollic_TrueSTUDIO_for_ARM_x86_64_8.0.0/ARMTools/bin/../lib/gcc/arm-atollic-eabi/6.3.1/../../../../arm-atollic-eabi/lib/armv7-ar/thumb/fpu/libc_nano.a(lib_a-locale.o)
__localeconv_l                                    /opt/Atollic_TrueSTUDIO_for_ARM_x86_64_8.0.0/ARMTools/bin/../lib/gcc/arm-atollic-eabi/6.3.1/../../../../arm-atollic-eabi/lib/armv7-ar/thumb/fpu/libc_nano.a(lib_a-localeconv.o)
                                                  /opt/Atollic_TrueSTUDIO_for_ARM_x86_64_8.0.0/ARMTools/bin/../lib/gcc/arm-atollic-eabi/6.3.1/../../../../arm-atollic-eabi/lib/armv7-ar/thumb/fpu/libc_nano.a(lib_a-gdtoa-gethex.o)
                                                  /opt/Atollic_TrueSTUDIO_for_ARM_x86_64_8.0.0/ARMTools/bin/../lib/gcc/arm-atollic-eabi/6.3.1/../../../../arm-atollic-eabi/lib/armv7-ar/thumb/fpu/libc_nano.a(lib_a-strtod.o)
__lshift                                          /opt/Atollic_TrueSTUDIO_for_ARM_x86_64_8.0.0/ARMTools/bin/../lib/gcc/arm-atollic-eabi/6.3.1/../../../../arm-atollic-eabi/lib/armv7-ar/thumb/fpu/libc_nano.a(lib_a-mprec.o)
                                                  /opt/Atollic_TrueSTUDIO_for_ARM_x86_64_8.0.0/ARMTools/bin/../lib/gcc/arm-atollic-eabi/6.3.1/../../../../arm-atollic-eabi/lib/armv7-ar/thumb/fpu/libc_nano.a(lib_a-gdtoa-gethex.o)
                                                  /opt/Atollic_TrueSTUDIO_for_ARM_x86_64_8.0.0/ARMTools/bin/../lib/gcc/arm-atollic-eabi/6.3.1/../../../../arm-atollic-eabi/lib/armv7-ar/thumb/fpu/libc_nano.a(lib_a-dtoa.o)
                                                  /opt/Atollic_TrueSTUDIO_for_ARM_x86_64_8.0.0/ARMTools/bin/../lib/gcc/arm-atollic-eabi/6.3.1/../../../../arm-atollic-eabi/lib/armv7-ar/thumb/fpu/libc_nano.a(lib_a-strtod.o)
__malloc_free_list                                /opt/Atollic_TrueSTUDIO_for_ARM_x86_64_8.0.0/ARMTools/bin/../lib/gcc/arm-atollic-eabi/6.3.1/../../../../arm-atollic-eabi/lib/armv7-ar/thumb/fpu/libc_nano.a(lib_a-nano-mallocr.o)
                                                  /opt/Atollic_TrueSTUDIO_for_ARM_x86_64_8.0.0/ARMTools/bin/../lib/gcc/arm-atollic-eabi/6.3.1/../../../../arm-atollic-eabi/lib/armv7-ar/thumb/fpu/libc_nano.a(lib_a-nano-freer.o)
__malloc_lock                                     /opt/Atollic_TrueSTUDIO_for_ARM_x86_64_8.0.0/ARMTools/bin/../lib/gcc/arm-atollic-eabi/6.3.1/../../../../arm-atollic-eabi/lib/armv7-ar/thumb/fpu/libc_nano.a(lib_a-mlock.o)
                                                  /opt/Atollic_TrueSTUDIO_for_ARM_x86_64_8.0.0/ARMTools/bin/../lib/gcc/arm-atollic-eabi/6.3.1/../../../../arm-atollic-eabi/lib/armv7-ar/thumb/fpu/libc_nano.a(lib_a-nano-mallocr.o)
                                                  /opt/Atollic_TrueSTUDIO_for_ARM_x86_64_8.0.0/ARMTools/bin/../lib/gcc/arm-atollic-eabi/6.3.1/../../../../arm-atollic-eabi/lib/armv7-ar/thumb/fpu/libc_nano.a(lib_a-nano-freer.o)
__malloc_sbrk_start                               /opt/Atollic_TrueSTUDIO_for_ARM_x86_64_8.0.0/ARMTools/bin/../lib/gcc/arm-atollic-eabi/6.3.1/../../../../arm-atollic-eabi/lib/armv7-ar/thumb/fpu/libc_nano.a(lib_a-nano-mallocr.o)
__malloc_unlock                                   /opt/Atollic_TrueSTUDIO_for_ARM_x86_64_8.0.0/ARMTools/bin/../lib/gcc/arm-atollic-eabi/6.3.1/../../../../arm-atollic-eabi/lib/armv7-ar/thumb/fpu/libc_nano.a(lib_a-mlock.o)
                                                  /opt/Atollic_TrueSTUDIO_for_ARM_x86_64_8.0.0/ARMTools/bin/../lib/gcc/arm-atollic-eabi/6.3.1/../../../../arm-atollic-eabi/lib/armv7-ar/thumb/fpu/libc_nano.a(lib_a-nano-mallocr.o)
                                                  /opt/Atollic_TrueSTUDIO_for_ARM_x86_64_8.0.0/ARMTools/bin/../lib/gcc/arm-atollic-eabi/6.3.1/../../../../arm-atollic-eabi/lib/armv7-ar/thumb/fpu/libc_nano.a(lib_a-nano-freer.o)
__match                                           /opt/Atollic_TrueSTUDIO_for_ARM_x86_64_8.0.0/ARMTools/bin/../lib/gcc/arm-atollic-eabi/6.3.1/../../../../arm-atollic-eabi/lib/armv7-ar/thumb/fpu/libc_nano.a(lib_a-gdtoa-hexnan.o)
                                                  /opt/Atollic_TrueSTUDIO_for_ARM_x86_64_8.0.0/ARMTools/bin/../lib/gcc/arm-atollic-eabi/6.3.1/../../../../arm-atollic-eabi/lib/armv7-ar/thumb/fpu/libc_nano.a(lib_a-strtod.o)
__mcmp                                            /opt/Atollic_TrueSTUDIO_for_ARM_x86_64_8.0.0/ARMTools/bin/../lib/gcc/arm-atollic-eabi/6.3.1/../../../../arm-atollic-eabi/lib/armv7-ar/thumb/fpu/libc_nano.a(lib_a-mprec.o)
                                                  /opt/Atollic_TrueSTUDIO_for_ARM_x86_64_8.0.0/ARMTools/bin/../lib/gcc/arm-atollic-eabi/6.3.1/../../../../arm-atollic-eabi/lib/armv7-ar/thumb/fpu/libc_nano.a(lib_a-dtoa.o)
                                                  /opt/Atollic_TrueSTUDIO_for_ARM_x86_64_8.0.0/ARMTools/bin/../lib/gcc/arm-atollic-eabi/6.3.1/../../../../arm-atollic-eabi/lib/armv7-ar/thumb/fpu/libc_nano.a(lib_a-strtod.o)
__mdiff                                           /opt/Atollic_TrueSTUDIO_for_ARM_x86_64_8.0.0/ARMTools/bin/../lib/gcc/arm-atollic-eabi/6.3.1/../../../../arm-atollic-eabi/lib/armv7-ar/thumb/fpu/libc_nano.a(lib_a-mprec.o)
                                                  /opt/Atollic_TrueSTUDIO_for_ARM_x86_64_8.0.0/ARMTools/bin/../lib/gcc/arm-atollic-eabi/6.3.1/../../../../arm-atollic-eabi/lib/armv7-ar/thumb/fpu/libc_nano.a(lib_a-dtoa.o)
                                                  /opt/Atollic_TrueSTUDIO_for_ARM_x86_64_8.0.0/ARMTools/bin/../lib/gcc/arm-atollic-eabi/6.3.1/../../../../arm-atollic-eabi/lib/armv7-ar/thumb/fpu/libc_nano.a(lib_a-strtod.o)
__mprec_bigtens                                   /opt/Atollic_TrueSTUDIO_for_ARM_x86_64_8.0.0/ARMTools/bin/../lib/gcc/arm-atollic-eabi/6.3.1/../../../../arm-atollic-eabi/lib/armv7-ar/thumb/fpu/libc_nano.a(lib_a-mprec.o)
                                                  /opt/Atollic_TrueSTUDIO_for_ARM_x86_64_8.0.0/ARMTools/bin/../lib/gcc/arm-atollic-eabi/6.3.1/../../../../arm-atollic-eabi/lib/armv7-ar/thumb/fpu/libc_nano.a(lib_a-dtoa.o)
                                                  /opt/Atollic_TrueSTUDIO_for_ARM_x86_64_8.0.0/ARMTools/bin/../lib/gcc/arm-atollic-eabi/6.3.1/../../../../arm-atollic-eabi/lib/armv7-ar/thumb/fpu/libc_nano.a(lib_a-strtod.o)
__mprec_tens                                      /opt/Atollic_TrueSTUDIO_for_ARM_x86_64_8.0.0/ARMTools/bin/../lib/gcc/arm-atollic-eabi/6.3.1/../../../../arm-atollic-eabi/lib/armv7-ar/thumb/fpu/libc_nano.a(lib_a-mprec.o)
                                                  /opt/Atollic_TrueSTUDIO_for_ARM_x86_64_8.0.0/ARMTools/bin/../lib/gcc/arm-atollic-eabi/6.3.1/../../../../arm-atollic-eabi/lib/armv7-ar/thumb/fpu/libc_nano.a(lib_a-dtoa.o)
                                                  /opt/Atollic_TrueSTUDIO_for_ARM_x86_64_8.0.0/ARMTools/bin/../lib/gcc/arm-atollic-eabi/6.3.1/../../../../arm-atollic-eabi/lib/armv7-ar/thumb/fpu/libc_nano.a(lib_a-strtod.o)
__mprec_tinytens                                  /opt/Atollic_TrueSTUDIO_for_ARM_x86_64_8.0.0/ARMTools/bin/../lib/gcc/arm-atollic-eabi/6.3.1/../../../../arm-atollic-eabi/lib/armv7-ar/thumb/fpu/libc_nano.a(lib_a-mprec.o)
__multadd                                         /opt/Atollic_TrueSTUDIO_for_ARM_x86_64_8.0.0/ARMTools/bin/../lib/gcc/arm-atollic-eabi/6.3.1/../../../../arm-atollic-eabi/lib/armv7-ar/thumb/fpu/libc_nano.a(lib_a-mprec.o)
                                                  /opt/Atollic_TrueSTUDIO_for_ARM_x86_64_8.0.0/ARMTools/bin/../lib/gcc/arm-atollic-eabi/6.3.1/../../../../arm-atollic-eabi/lib/armv7-ar/thumb/fpu/libc_nano.a(lib_a-dtoa.o)
__multiply                                        /opt/Atollic_TrueSTUDIO_for_ARM_x86_64_8.0.0/ARMTools/bin/../lib/gcc/arm-atollic-eabi/6.3.1/../../../../arm-atollic-eabi/lib/armv7-ar/thumb/fpu/libc_nano.a(lib_a-mprec.o)
                                                  /opt/Atollic_TrueSTUDIO_for_ARM_x86_64_8.0.0/ARMTools/bin/../lib/gcc/arm-atollic-eabi/6.3.1/../../../../arm-atollic-eabi/lib/armv7-ar/thumb/fpu/libc_nano.a(lib_a-dtoa.o)
                                                  /opt/Atollic_TrueSTUDIO_for_ARM_x86_64_8.0.0/ARMTools/bin/../lib/gcc/arm-atollic-eabi/6.3.1/../../../../arm-atollic-eabi/lib/armv7-ar/thumb/fpu/libc_nano.a(lib_a-strtod.o)
__on_exit_args                                    /opt/Atollic_TrueSTUDIO_for_ARM_x86_64_8.0.0/ARMTools/bin/../lib/gcc/arm-atollic-eabi/6.3.1/../../../../arm-atollic-eabi/lib/armv7-ar/thumb/fpu/libc_nano.a(lib_a-on_exit_args.o)
                                                  /opt/Atollic_TrueSTUDIO_for_ARM_x86_64_8.0.0/ARMTools/bin/../lib/gcc/arm-atollic-eabi/6.3.1/../../../../arm-atollic-eabi/lib/armv7-ar/thumb/fpu/libc_nano.a(lib_a-cxa_atexit.o)
__pow5mult                                        /opt/Atollic_TrueSTUDIO_for_ARM_x86_64_8.0.0/ARMTools/bin/../lib/gcc/arm-atollic-eabi/6.3.1/../../../../arm-atollic-eabi/lib/armv7-ar/thumb/fpu/libc_nano.a(lib_a-mprec.o)
                                                  /opt/Atollic_TrueSTUDIO_for_ARM_x86_64_8.0.0/ARMTools/bin/../lib/gcc/arm-atollic-eabi/6.3.1/../../../../arm-atollic-eabi/lib/armv7-ar/thumb/fpu/libc_nano.a(lib_a-dtoa.o)
                                                  /opt/Atollic_TrueSTUDIO_for_ARM_x86_64_8.0.0/ARMTools/bin/../lib/gcc/arm-atollic-eabi/6.3.1/../../../../arm-atollic-eabi/lib/armv7-ar/thumb/fpu/libc_nano.a(lib_a-strtod.o)
__preinit_array_end                               libmbed.a(common.o)
__preinit_array_start                             libmbed.a(common.o)
__ratio                                           /opt/Atollic_TrueSTUDIO_for_ARM_x86_64_8.0.0/ARMTools/bin/../lib/gcc/arm-atollic-eabi/6.3.1/../../../../arm-atollic-eabi/lib/armv7-ar/thumb/fpu/libc_nano.a(lib_a-mprec.o)
                                                  /opt/Atollic_TrueSTUDIO_for_ARM_x86_64_8.0.0/ARMTools/bin/../lib/gcc/arm-atollic-eabi/6.3.1/../../../../arm-atollic-eabi/lib/armv7-ar/thumb/fpu/libc_nano.a(lib_a-strtod.o)
__real_main                                       libmbed.a(retarget.o)
__register_exitproc                               /opt/Atollic_TrueSTUDIO_for_ARM_x86_64_8.0.0/ARMTools/bin/../lib/gcc/arm-atollic-eabi/6.3.1/../../../../arm-atollic-eabi/lib/armv7-ar/thumb/fpu/libc_nano.a(lib_a-cxa_atexit.o)
__s2b                                             /opt/Atollic_TrueSTUDIO_for_ARM_x86_64_8.0.0/ARMTools/bin/../lib/gcc/arm-atollic-eabi/6.3.1/../../../../arm-atollic-eabi/lib/armv7-ar/thumb/fpu/libc_nano.a(lib_a-mprec.o)
                                                  /opt/Atollic_TrueSTUDIO_for_ARM_x86_64_8.0.0/ARMTools/bin/../lib/gcc/arm-atollic-eabi/6.3.1/../../../../arm-atollic-eabi/lib/armv7-ar/thumb/fpu/libc_nano.a(lib_a-strtod.o)
__sccl                                            /opt/Atollic_TrueSTUDIO_for_ARM_x86_64_8.0.0/ARMTools/bin/../lib/gcc/arm-atollic-eabi/6.3.1/../../../../arm-atollic-eabi/lib/armv7-ar/thumb/fpu/libc_nano.a(lib_a-sccl.o)
                                                  /opt/Atollic_TrueSTUDIO_for_ARM_x86_64_8.0.0/ARMTools/bin/../lib/gcc/arm-atollic-eabi/6.3.1/../../../../arm-atollic-eabi/lib/armv7-ar/thumb/fpu/libc_nano.a(lib_a-nano-vfscanf_i.o)
                                                  /opt/Atollic_TrueSTUDIO_for_ARM_x86_64_8.0.0/ARMTools/bin/../lib/gcc/arm-atollic-eabi/6.3.1/../../../../arm-atollic-eabi/lib/armv7-ar/thumb/fpu/libc_nano.a(lib_a-nano-svfscanf.o)
__sclose                                          /opt/Atollic_TrueSTUDIO_for_ARM_x86_64_8.0.0/ARMTools/bin/../lib/gcc/arm-atollic-eabi/6.3.1/../../../../arm-atollic-eabi/lib/armv7-ar/thumb/fpu/libc_nano.a(lib_a-stdio.o)
                                                  /opt/Atollic_TrueSTUDIO_for_ARM_x86_64_8.0.0/ARMTools/bin/../lib/gcc/arm-atollic-eabi/6.3.1/../../../../arm-atollic-eabi/lib/armv7-ar/thumb/fpu/libc_nano.a(lib_a-findfp.o)
__seofread                                        /opt/Atollic_TrueSTUDIO_for_ARM_x86_64_8.0.0/ARMTools/bin/../lib/gcc/arm-atollic-eabi/6.3.1/../../../../arm-atollic-eabi/lib/armv7-ar/thumb/fpu/libc_nano.a(lib_a-stdio.o)
                                                  /opt/Atollic_TrueSTUDIO_for_ARM_x86_64_8.0.0/ARMTools/bin/../lib/gcc/arm-atollic-eabi/6.3.1/../../../../arm-atollic-eabi/lib/armv7-ar/thumb/fpu/libc_nano.a(lib_a-sscanf.o)
__sf_fake_stderr                                  /opt/Atollic_TrueSTUDIO_for_ARM_x86_64_8.0.0/ARMTools/bin/../lib/gcc/arm-atollic-eabi/6.3.1/../../../../arm-atollic-eabi/lib/armv7-ar/thumb/fpu/libc_nano.a(lib_a-findfp.o)
                                                  /opt/Atollic_TrueSTUDIO_for_ARM_x86_64_8.0.0/ARMTools/bin/../lib/gcc/arm-atollic-eabi/6.3.1/../../../../arm-atollic-eabi/lib/armv7-ar/thumb/fpu/libc_nano.a(lib_a-ungetc.o)
                                                  /opt/Atollic_TrueSTUDIO_for_ARM_x86_64_8.0.0/ARMTools/bin/../lib/gcc/arm-atollic-eabi/6.3.1/../../../../arm-atollic-eabi/lib/armv7-ar/thumb/fpu/libc_nano.a(lib_a-fflush.o)
                                                  /opt/Atollic_TrueSTUDIO_for_ARM_x86_64_8.0.0/ARMTools/bin/../lib/gcc/arm-atollic-eabi/6.3.1/../../../../arm-atollic-eabi/lib/armv7-ar/thumb/fpu/libc_nano.a(lib_a-setvbuf.o)
                                                  /opt/Atollic_TrueSTUDIO_for_ARM_x86_64_8.0.0/ARMTools/bin/../lib/gcc/arm-atollic-eabi/6.3.1/../../../../arm-atollic-eabi/lib/armv7-ar/thumb/fpu/libc_nano.a(lib_a-rget.o)
                                                  /opt/Atollic_TrueSTUDIO_for_ARM_x86_64_8.0.0/ARMTools/bin/../lib/gcc/arm-atollic-eabi/6.3.1/../../../../arm-atollic-eabi/lib/armv7-ar/thumb/fpu/libc_nano.a(lib_a-refill.o)
                                                  /opt/Atollic_TrueSTUDIO_for_ARM_x86_64_8.0.0/ARMTools/bin/../lib/gcc/arm-atollic-eabi/6.3.1/../../../../arm-atollic-eabi/lib/armv7-ar/thumb/fpu/libc_nano.a(lib_a-impure.o)
                                                  /opt/Atollic_TrueSTUDIO_for_ARM_x86_64_8.0.0/ARMTools/bin/../lib/gcc/arm-atollic-eabi/6.3.1/../../../../arm-atollic-eabi/lib/armv7-ar/thumb/fpu/libc_nano.a(lib_a-fgets.o)
                                                  /opt/Atollic_TrueSTUDIO_for_ARM_x86_64_8.0.0/ARMTools/bin/../lib/gcc/arm-atollic-eabi/6.3.1/../../../../arm-atollic-eabi/lib/armv7-ar/thumb/fpu/libc_nano.a(lib_a-fgetc.o)
__sf_fake_stdin                                   /opt/Atollic_TrueSTUDIO_for_ARM_x86_64_8.0.0/ARMTools/bin/../lib/gcc/arm-atollic-eabi/6.3.1/../../../../arm-atollic-eabi/lib/armv7-ar/thumb/fpu/libc_nano.a(lib_a-findfp.o)
                                                  /opt/Atollic_TrueSTUDIO_for_ARM_x86_64_8.0.0/ARMTools/bin/../lib/gcc/arm-atollic-eabi/6.3.1/../../../../arm-atollic-eabi/lib/armv7-ar/thumb/fpu/libc_nano.a(lib_a-ungetc.o)
                                                  /opt/Atollic_TrueSTUDIO_for_ARM_x86_64_8.0.0/ARMTools/bin/../lib/gcc/arm-atollic-eabi/6.3.1/../../../../arm-atollic-eabi/lib/armv7-ar/thumb/fpu/libc_nano.a(lib_a-fflush.o)
                                                  /opt/Atollic_TrueSTUDIO_for_ARM_x86_64_8.0.0/ARMTools/bin/../lib/gcc/arm-atollic-eabi/6.3.1/../../../../arm-atollic-eabi/lib/armv7-ar/thumb/fpu/libc_nano.a(lib_a-setvbuf.o)
                                                  /opt/Atollic_TrueSTUDIO_for_ARM_x86_64_8.0.0/ARMTools/bin/../lib/gcc/arm-atollic-eabi/6.3.1/../../../../arm-atollic-eabi/lib/armv7-ar/thumb/fpu/libc_nano.a(lib_a-rget.o)
                                                  /opt/Atollic_TrueSTUDIO_for_ARM_x86_64_8.0.0/ARMTools/bin/../lib/gcc/arm-atollic-eabi/6.3.1/../../../../arm-atollic-eabi/lib/armv7-ar/thumb/fpu/libc_nano.a(lib_a-refill.o)
                                                  /opt/Atollic_TrueSTUDIO_for_ARM_x86_64_8.0.0/ARMTools/bin/../lib/gcc/arm-atollic-eabi/6.3.1/../../../../arm-atollic-eabi/lib/armv7-ar/thumb/fpu/libc_nano.a(lib_a-impure.o)
                                                  /opt/Atollic_TrueSTUDIO_for_ARM_x86_64_8.0.0/ARMTools/bin/../lib/gcc/arm-atollic-eabi/6.3.1/../../../../arm-atollic-eabi/lib/armv7-ar/thumb/fpu/libc_nano.a(lib_a-fgets.o)
                                                  /opt/Atollic_TrueSTUDIO_for_ARM_x86_64_8.0.0/ARMTools/bin/../lib/gcc/arm-atollic-eabi/6.3.1/../../../../arm-atollic-eabi/lib/armv7-ar/thumb/fpu/libc_nano.a(lib_a-fgetc.o)
__sf_fake_stdout                                  /opt/Atollic_TrueSTUDIO_for_ARM_x86_64_8.0.0/ARMTools/bin/../lib/gcc/arm-atollic-eabi/6.3.1/../../../../arm-atollic-eabi/lib/armv7-ar/thumb/fpu/libc_nano.a(lib_a-findfp.o)
                                                  /opt/Atollic_TrueSTUDIO_for_ARM_x86_64_8.0.0/ARMTools/bin/../lib/gcc/arm-atollic-eabi/6.3.1/../../../../arm-atollic-eabi/lib/armv7-ar/thumb/fpu/libc_nano.a(lib_a-ungetc.o)
                                                  /opt/Atollic_TrueSTUDIO_for_ARM_x86_64_8.0.0/ARMTools/bin/../lib/gcc/arm-atollic-eabi/6.3.1/../../../../arm-atollic-eabi/lib/armv7-ar/thumb/fpu/libc_nano.a(lib_a-fflush.o)
                                                  /opt/Atollic_TrueSTUDIO_for_ARM_x86_64_8.0.0/ARMTools/bin/../lib/gcc/arm-atollic-eabi/6.3.1/../../../../arm-atollic-eabi/lib/armv7-ar/thumb/fpu/libc_nano.a(lib_a-setvbuf.o)
                                                  /opt/Atollic_TrueSTUDIO_for_ARM_x86_64_8.0.0/ARMTools/bin/../lib/gcc/arm-atollic-eabi/6.3.1/../../../../arm-atollic-eabi/lib/armv7-ar/thumb/fpu/libc_nano.a(lib_a-rget.o)
                                                  /opt/Atollic_TrueSTUDIO_for_ARM_x86_64_8.0.0/ARMTools/bin/../lib/gcc/arm-atollic-eabi/6.3.1/../../../../arm-atollic-eabi/lib/armv7-ar/thumb/fpu/libc_nano.a(lib_a-refill.o)
                                                  /opt/Atollic_TrueSTUDIO_for_ARM_x86_64_8.0.0/ARMTools/bin/../lib/gcc/arm-atollic-eabi/6.3.1/../../../../arm-atollic-eabi/lib/armv7-ar/thumb/fpu/libc_nano.a(lib_a-impure.o)
                                                  /opt/Atollic_TrueSTUDIO_for_ARM_x86_64_8.0.0/ARMTools/bin/../lib/gcc/arm-atollic-eabi/6.3.1/../../../../arm-atollic-eabi/lib/armv7-ar/thumb/fpu/libc_nano.a(lib_a-fgets.o)
                                                  /opt/Atollic_TrueSTUDIO_for_ARM_x86_64_8.0.0/ARMTools/bin/../lib/gcc/arm-atollic-eabi/6.3.1/../../../../arm-atollic-eabi/lib/armv7-ar/thumb/fpu/libc_nano.a(lib_a-fgetc.o)
__sflush_r                                        /opt/Atollic_TrueSTUDIO_for_ARM_x86_64_8.0.0/ARMTools/bin/../lib/gcc/arm-atollic-eabi/6.3.1/../../../../arm-atollic-eabi/lib/armv7-ar/thumb/fpu/libc_nano.a(lib_a-fflush.o)
                                                  /opt/Atollic_TrueSTUDIO_for_ARM_x86_64_8.0.0/ARMTools/bin/../lib/gcc/arm-atollic-eabi/6.3.1/../../../../arm-atollic-eabi/lib/armv7-ar/thumb/fpu/libc_nano.a(lib_a-refill.o)
__sfmoreglue                                      /opt/Atollic_TrueSTUDIO_for_ARM_x86_64_8.0.0/ARMTools/bin/../lib/gcc/arm-atollic-eabi/6.3.1/../../../../arm-atollic-eabi/lib/armv7-ar/thumb/fpu/libc_nano.a(lib_a-findfp.o)
__sfp                                             /opt/Atollic_TrueSTUDIO_for_ARM_x86_64_8.0.0/ARMTools/bin/../lib/gcc/arm-atollic-eabi/6.3.1/../../../../arm-atollic-eabi/lib/armv7-ar/thumb/fpu/libc_nano.a(lib_a-findfp.o)
__sfp_lock_acquire                                /opt/Atollic_TrueSTUDIO_for_ARM_x86_64_8.0.0/ARMTools/bin/../lib/gcc/arm-atollic-eabi/6.3.1/../../../../arm-atollic-eabi/lib/armv7-ar/thumb/fpu/libc_nano.a(lib_a-findfp.o)
__sfp_lock_release                                /opt/Atollic_TrueSTUDIO_for_ARM_x86_64_8.0.0/ARMTools/bin/../lib/gcc/arm-atollic-eabi/6.3.1/../../../../arm-atollic-eabi/lib/armv7-ar/thumb/fpu/libc_nano.a(lib_a-findfp.o)
__sigtramp                                        /opt/Atollic_TrueSTUDIO_for_ARM_x86_64_8.0.0/ARMTools/bin/../lib/gcc/arm-atollic-eabi/6.3.1/../../../../arm-atollic-eabi/lib/armv7-ar/thumb/fpu/libc_nano.a(lib_a-signal.o)
__sigtramp_r                                      /opt/Atollic_TrueSTUDIO_for_ARM_x86_64_8.0.0/ARMTools/bin/../lib/gcc/arm-atollic-eabi/6.3.1/../../../../arm-atollic-eabi/lib/armv7-ar/thumb/fpu/libc_nano.a(lib_a-signal.o)
__sinit                                           /opt/Atollic_TrueSTUDIO_for_ARM_x86_64_8.0.0/ARMTools/bin/../lib/gcc/arm-atollic-eabi/6.3.1/../../../../arm-atollic-eabi/lib/armv7-ar/thumb/fpu/libc_nano.a(lib_a-findfp.o)
                                                  /opt/Atollic_TrueSTUDIO_for_ARM_x86_64_8.0.0/ARMTools/bin/../lib/gcc/arm-atollic-eabi/6.3.1/../../../../arm-atollic-eabi/lib/armv7-ar/thumb/fpu/libc_nano.a(lib_a-ungetc.o)
                                                  /opt/Atollic_TrueSTUDIO_for_ARM_x86_64_8.0.0/ARMTools/bin/../lib/gcc/arm-atollic-eabi/6.3.1/../../../../arm-atollic-eabi/lib/armv7-ar/thumb/fpu/libc_nano.a(lib_a-fflush.o)
                                                  /opt/Atollic_TrueSTUDIO_for_ARM_x86_64_8.0.0/ARMTools/bin/../lib/gcc/arm-atollic-eabi/6.3.1/../../../../arm-atollic-eabi/lib/armv7-ar/thumb/fpu/libc_nano.a(lib_a-setvbuf.o)
                                                  /opt/Atollic_TrueSTUDIO_for_ARM_x86_64_8.0.0/ARMTools/bin/../lib/gcc/arm-atollic-eabi/6.3.1/../../../../arm-atollic-eabi/lib/armv7-ar/thumb/fpu/libc_nano.a(lib_a-rget.o)
                                                  /opt/Atollic_TrueSTUDIO_for_ARM_x86_64_8.0.0/ARMTools/bin/../lib/gcc/arm-atollic-eabi/6.3.1/../../../../arm-atollic-eabi/lib/armv7-ar/thumb/fpu/libc_nano.a(lib_a-refill.o)
                                                  /opt/Atollic_TrueSTUDIO_for_ARM_x86_64_8.0.0/ARMTools/bin/../lib/gcc/arm-atollic-eabi/6.3.1/../../../../arm-atollic-eabi/lib/armv7-ar/thumb/fpu/libc_nano.a(lib_a-fgets.o)
                                                  /opt/Atollic_TrueSTUDIO_for_ARM_x86_64_8.0.0/ARMTools/bin/../lib/gcc/arm-atollic-eabi/6.3.1/../../../../arm-atollic-eabi/lib/armv7-ar/thumb/fpu/libc_nano.a(lib_a-fgetc.o)
__sinit_lock_acquire                              /opt/Atollic_TrueSTUDIO_for_ARM_x86_64_8.0.0/ARMTools/bin/../lib/gcc/arm-atollic-eabi/6.3.1/../../../../arm-atollic-eabi/lib/armv7-ar/thumb/fpu/libc_nano.a(lib_a-findfp.o)
__sinit_lock_release                              /opt/Atollic_TrueSTUDIO_for_ARM_x86_64_8.0.0/ARMTools/bin/../lib/gcc/arm-atollic-eabi/6.3.1/../../../../arm-atollic-eabi/lib/armv7-ar/thumb/fpu/libc_nano.a(lib_a-findfp.o)
__smakebuf_r                                      /opt/Atollic_TrueSTUDIO_for_ARM_x86_64_8.0.0/ARMTools/bin/../lib/gcc/arm-atollic-eabi/6.3.1/../../../../arm-atollic-eabi/lib/armv7-ar/thumb/fpu/libc_nano.a(lib_a-makebuf.o)
                                                  /opt/Atollic_TrueSTUDIO_for_ARM_x86_64_8.0.0/ARMTools/bin/../lib/gcc/arm-atollic-eabi/6.3.1/../../../../arm-atollic-eabi/lib/armv7-ar/thumb/fpu/libc_nano.a(lib_a-refill.o)
__sread                                           /opt/Atollic_TrueSTUDIO_for_ARM_x86_64_8.0.0/ARMTools/bin/../lib/gcc/arm-atollic-eabi/6.3.1/../../../../arm-atollic-eabi/lib/armv7-ar/thumb/fpu/libc_nano.a(lib_a-stdio.o)
                                                  /opt/Atollic_TrueSTUDIO_for_ARM_x86_64_8.0.0/ARMTools/bin/../lib/gcc/arm-atollic-eabi/6.3.1/../../../../arm-atollic-eabi/lib/armv7-ar/thumb/fpu/libc_nano.a(lib_a-findfp.o)
__srefill_r                                       /opt/Atollic_TrueSTUDIO_for_ARM_x86_64_8.0.0/ARMTools/bin/../lib/gcc/arm-atollic-eabi/6.3.1/../../../../arm-atollic-eabi/lib/armv7-ar/thumb/fpu/libc_nano.a(lib_a-refill.o)
                                                  /opt/Atollic_TrueSTUDIO_for_ARM_x86_64_8.0.0/ARMTools/bin/../lib/gcc/arm-atollic-eabi/6.3.1/../../../../arm-atollic-eabi/lib/armv7-ar/thumb/fpu/libc_nano.a(lib_a-rget.o)
                                                  /opt/Atollic_TrueSTUDIO_for_ARM_x86_64_8.0.0/ARMTools/bin/../lib/gcc/arm-atollic-eabi/6.3.1/../../../../arm-atollic-eabi/lib/armv7-ar/thumb/fpu/libc_nano.a(lib_a-fgets.o)
__srget                                           /opt/Atollic_TrueSTUDIO_for_ARM_x86_64_8.0.0/ARMTools/bin/../lib/gcc/arm-atollic-eabi/6.3.1/../../../../arm-atollic-eabi/lib/armv7-ar/thumb/fpu/libc_nano.a(lib_a-rget.o)
__srget_r                                         /opt/Atollic_TrueSTUDIO_for_ARM_x86_64_8.0.0/ARMTools/bin/../lib/gcc/arm-atollic-eabi/6.3.1/../../../../arm-atollic-eabi/lib/armv7-ar/thumb/fpu/libc_nano.a(lib_a-rget.o)
                                                  /opt/Atollic_TrueSTUDIO_for_ARM_x86_64_8.0.0/ARMTools/bin/../lib/gcc/arm-atollic-eabi/6.3.1/../../../../arm-atollic-eabi/lib/armv7-ar/thumb/fpu/libc_nano.a(lib_a-fgetc.o)
__sseek                                           /opt/Atollic_TrueSTUDIO_for_ARM_x86_64_8.0.0/ARMTools/bin/../lib/gcc/arm-atollic-eabi/6.3.1/../../../../arm-atollic-eabi/lib/armv7-ar/thumb/fpu/libc_nano.a(lib_a-stdio.o)
                                                  /opt/Atollic_TrueSTUDIO_for_ARM_x86_64_8.0.0/ARMTools/bin/../lib/gcc/arm-atollic-eabi/6.3.1/../../../../arm-atollic-eabi/lib/armv7-ar/thumb/fpu/libc_nano.a(lib_a-findfp.o)
__ssprint_r                                       /opt/Atollic_TrueSTUDIO_for_ARM_x86_64_8.0.0/ARMTools/bin/../lib/gcc/arm-atollic-eabi/6.3.1/../../../../arm-atollic-eabi/lib/armv7-ar/thumb/fpu/libc_nano.a(lib_a-nano-svfprintf.o)
__ssputs_r                                        /opt/Atollic_TrueSTUDIO_for_ARM_x86_64_8.0.0/ARMTools/bin/../lib/gcc/arm-atollic-eabi/6.3.1/../../../../arm-atollic-eabi/lib/armv7-ar/thumb/fpu/libc_nano.a(lib_a-nano-svfprintf.o)
__ssrefill_r                                      /opt/Atollic_TrueSTUDIO_for_ARM_x86_64_8.0.0/ARMTools/bin/../lib/gcc/arm-atollic-eabi/6.3.1/../../../../arm-atollic-eabi/lib/armv7-ar/thumb/fpu/libc_nano.a(lib_a-nano-svfscanf.o)
__ssvfiscanf_r                                    /opt/Atollic_TrueSTUDIO_for_ARM_x86_64_8.0.0/ARMTools/bin/../lib/gcc/arm-atollic-eabi/6.3.1/../../../../arm-atollic-eabi/lib/armv7-ar/thumb/fpu/libc_nano.a(lib_a-nano-svfscanf.o)
__ssvfscanf_r                                     /opt/Atollic_TrueSTUDIO_for_ARM_x86_64_8.0.0/ARMTools/bin/../lib/gcc/arm-atollic-eabi/6.3.1/../../../../arm-atollic-eabi/lib/armv7-ar/thumb/fpu/libc_nano.a(lib_a-nano-svfscanf.o)
                                                  /opt/Atollic_TrueSTUDIO_for_ARM_x86_64_8.0.0/ARMTools/bin/../lib/gcc/arm-atollic-eabi/6.3.1/../../../../arm-atollic-eabi/lib/armv7-ar/thumb/fpu/libc_nano.a(lib_a-sscanf.o)
__stderr_name                                     libmbed.a(retarget.o)
__stdin_name                                      libmbed.a(retarget.o)
__stdout_name                                     libmbed.a(retarget.o)
__subdf3                                          /opt/Atollic_TrueSTUDIO_for_ARM_x86_64_8.0.0/ARMTools/bin/../lib/gcc/arm-atollic-eabi/6.3.1/armv7-ar/thumb/fpu/libgcc.a(_arm_addsubdf3.o)
__submore                                         /opt/Atollic_TrueSTUDIO_for_ARM_x86_64_8.0.0/ARMTools/bin/../lib/gcc/arm-atollic-eabi/6.3.1/../../../../arm-atollic-eabi/lib/armv7-ar/thumb/fpu/libc_nano.a(lib_a-ungetc.o)
                                                  /opt/Atollic_TrueSTUDIO_for_ARM_x86_64_8.0.0/ARMTools/bin/../lib/gcc/arm-atollic-eabi/6.3.1/../../../../arm-atollic-eabi/lib/armv7-ar/thumb/fpu/libc_nano.a(lib_a-nano-svfscanf.o)
__swhatbuf_r                                      /opt/Atollic_TrueSTUDIO_for_ARM_x86_64_8.0.0/ARMTools/bin/../lib/gcc/arm-atollic-eabi/6.3.1/../../../../arm-atollic-eabi/lib/armv7-ar/thumb/fpu/libc_nano.a(lib_a-makebuf.o)
                                                  /opt/Atollic_TrueSTUDIO_for_ARM_x86_64_8.0.0/ARMTools/bin/../lib/gcc/arm-atollic-eabi/6.3.1/../../../../arm-atollic-eabi/lib/armv7-ar/thumb/fpu/libc_nano.a(lib_a-setvbuf.o)
__swrite                                          /opt/Atollic_TrueSTUDIO_for_ARM_x86_64_8.0.0/ARMTools/bin/../lib/gcc/arm-atollic-eabi/6.3.1/../../../../arm-atollic-eabi/lib/armv7-ar/thumb/fpu/libc_nano.a(lib_a-stdio.o)
                                                  /opt/Atollic_TrueSTUDIO_for_ARM_x86_64_8.0.0/ARMTools/bin/../lib/gcc/arm-atollic-eabi/6.3.1/../../../../arm-atollic-eabi/lib/armv7-ar/thumb/fpu/libc_nano.a(lib_a-findfp.o)
__udivsi3                                         /opt/Atollic_TrueSTUDIO_for_ARM_x86_64_8.0.0/ARMTools/bin/../lib/gcc/arm-atollic-eabi/6.3.1/armv7-ar/thumb/fpu/libgcc.a(_udivsi3.o)
__ulp                                             /opt/Atollic_TrueSTUDIO_for_ARM_x86_64_8.0.0/ARMTools/bin/../lib/gcc/arm-atollic-eabi/6.3.1/../../../../arm-atollic-eabi/lib/armv7-ar/thumb/fpu/libc_nano.a(lib_a-mprec.o)
                                                  /opt/Atollic_TrueSTUDIO_for_ARM_x86_64_8.0.0/ARMTools/bin/../lib/gcc/arm-atollic-eabi/6.3.1/../../../../arm-atollic-eabi/lib/armv7-ar/thumb/fpu/libc_nano.a(lib_a-strtod.o)
__user_initial_stackheap                          libmbed.a(startup_RZ1AH.o)
__v7_all_cache                                    libmbed.a(cache.o)
                                                  libmbed.a(system_MBRZA1H.o)
__wrap_main                                       libmbed.a(retarget.o)
__zero_table_end__                                libmbed.a(startup_RZ1AH.o)
__zero_table_start__                              libmbed.a(startup_RZ1AH.o)
_calloc_r                                         /opt/Atollic_TrueSTUDIO_for_ARM_x86_64_8.0.0/ARMTools/bin/../lib/gcc/arm-atollic-eabi/6.3.1/../../../../arm-atollic-eabi/lib/armv7-ar/thumb/fpu/libc_nano.a(lib_a-nano-callocr.o)
                                                  /opt/Atollic_TrueSTUDIO_for_ARM_x86_64_8.0.0/ARMTools/bin/../lib/gcc/arm-atollic-eabi/6.3.1/../../../../arm-atollic-eabi/lib/armv7-ar/thumb/fpu/libc_nano.a(lib_a-mprec.o)
_cleanup                                          /opt/Atollic_TrueSTUDIO_for_ARM_x86_64_8.0.0/ARMTools/bin/../lib/gcc/arm-atollic-eabi/6.3.1/../../../../arm-atollic-eabi/lib/armv7-ar/thumb/fpu/libc_nano.a(lib_a-findfp.o)
_cleanup_r                                        /opt/Atollic_TrueSTUDIO_for_ARM_x86_64_8.0.0/ARMTools/bin/../lib/gcc/arm-atollic-eabi/6.3.1/../../../../arm-atollic-eabi/lib/armv7-ar/thumb/fpu/libc_nano.a(lib_a-findfp.o)
                                                  /opt/Atollic_TrueSTUDIO_for_ARM_x86_64_8.0.0/ARMTools/bin/../lib/gcc/arm-atollic-eabi/6.3.1/../../../../arm-atollic-eabi/lib/armv7-ar/thumb/fpu/libc_nano.a(lib_a-makebuf.o)
_close                                            libmbed.a(retarget.o)
                                                  /opt/Atollic_TrueSTUDIO_for_ARM_x86_64_8.0.0/ARMTools/bin/../lib/gcc/arm-atollic-eabi/6.3.1/../../../../arm-atollic-eabi/lib/armv7-ar/thumb/fpu/libc_nano.a(lib_a-closer.o)
_close_r                                          /opt/Atollic_TrueSTUDIO_for_ARM_x86_64_8.0.0/ARMTools/bin/../lib/gcc/arm-atollic-eabi/6.3.1/../../../../arm-atollic-eabi/lib/armv7-ar/thumb/fpu/libc_nano.a(lib_a-closer.o)
                                                  /opt/Atollic_TrueSTUDIO_for_ARM_x86_64_8.0.0/ARMTools/bin/../lib/gcc/arm-atollic-eabi/6.3.1/../../../../arm-atollic-eabi/lib/armv7-ar/thumb/fpu/libc_nano.a(lib_a-stdio.o)
_ctype_                                           /opt/Atollic_TrueSTUDIO_for_ARM_x86_64_8.0.0/ARMTools/bin/../lib/gcc/arm-atollic-eabi/6.3.1/../../../../arm-atollic-eabi/lib/armv7-ar/thumb/fpu/libc_nano.a(lib_a-ctype_.o)
                                                  /opt/Atollic_TrueSTUDIO_for_ARM_x86_64_8.0.0/ARMTools/bin/../lib/gcc/arm-atollic-eabi/6.3.1/../../../../arm-atollic-eabi/lib/armv7-ar/thumb/fpu/libc_nano.a(lib_a-locale.o)
_dtoa_r                                           /opt/Atollic_TrueSTUDIO_for_ARM_x86_64_8.0.0/ARMTools/bin/../lib/gcc/arm-atollic-eabi/6.3.1/../../../../arm-atollic-eabi/lib/armv7-ar/thumb/fpu/libc_nano.a(lib_a-dtoa.o)
                                                  /opt/Atollic_TrueSTUDIO_for_ARM_x86_64_8.0.0/ARMTools/bin/../lib/gcc/arm-atollic-eabi/6.3.1/../../../../arm-atollic-eabi/lib/armv7-ar/thumb/fpu/libc_nano.a(lib_a-nano-vfprintf_float.o)
_exit                                             libmbed.a(retarget.o)
                                                  /opt/Atollic_TrueSTUDIO_for_ARM_x86_64_8.0.0/ARMTools/bin/../lib/gcc/arm-atollic-eabi/6.3.1/../../../../arm-atollic-eabi/lib/armv7-ar/thumb/fpu/libc_nano.a(lib_a-exit.o)
                                                  /opt/Atollic_TrueSTUDIO_for_ARM_x86_64_8.0.0/ARMTools/bin/../lib/gcc/arm-atollic-eabi/6.3.1/../../../../arm-atollic-eabi/lib/armv7-ar/thumb/fpu/libc_nano.a(lib_a-abort.o)
_fflush_r                                         /opt/Atollic_TrueSTUDIO_for_ARM_x86_64_8.0.0/ARMTools/bin/../lib/gcc/arm-atollic-eabi/6.3.1/../../../../arm-atollic-eabi/lib/armv7-ar/thumb/fpu/libc_nano.a(lib_a-fflush.o)
                                                  /opt/Atollic_TrueSTUDIO_for_ARM_x86_64_8.0.0/ARMTools/bin/../lib/gcc/arm-atollic-eabi/6.3.1/../../../../arm-atollic-eabi/lib/armv7-ar/thumb/fpu/libc_nano.a(lib_a-ungetc.o)
                                                  /opt/Atollic_TrueSTUDIO_for_ARM_x86_64_8.0.0/ARMTools/bin/../lib/gcc/arm-atollic-eabi/6.3.1/../../../../arm-atollic-eabi/lib/armv7-ar/thumb/fpu/libc_nano.a(lib_a-setvbuf.o)
                                                  /opt/Atollic_TrueSTUDIO_for_ARM_x86_64_8.0.0/ARMTools/bin/../lib/gcc/arm-atollic-eabi/6.3.1/../../../../arm-atollic-eabi/lib/armv7-ar/thumb/fpu/libc_nano.a(lib_a-refill.o)
                                                  /opt/Atollic_TrueSTUDIO_for_ARM_x86_64_8.0.0/ARMTools/bin/../lib/gcc/arm-atollic-eabi/6.3.1/../../../../arm-atollic-eabi/lib/armv7-ar/thumb/fpu/libc_nano.a(lib_a-findfp.o)
_fgetc_r                                          /opt/Atollic_TrueSTUDIO_for_ARM_x86_64_8.0.0/ARMTools/bin/../lib/gcc/arm-atollic-eabi/6.3.1/../../../../arm-atollic-eabi/lib/armv7-ar/thumb/fpu/libc_nano.a(lib_a-fgetc.o)
_fgets_r                                          /opt/Atollic_TrueSTUDIO_for_ARM_x86_64_8.0.0/ARMTools/bin/../lib/gcc/arm-atollic-eabi/6.3.1/../../../../arm-atollic-eabi/lib/armv7-ar/thumb/fpu/libc_nano.a(lib_a-fgets.o)
_free_r                                           /opt/Atollic_TrueSTUDIO_for_ARM_x86_64_8.0.0/ARMTools/bin/../lib/gcc/arm-atollic-eabi/6.3.1/../../../../arm-atollic-eabi/lib/armv7-ar/thumb/fpu/libc_nano.a(lib_a-nano-freer.o)
                                                  /opt/Atollic_TrueSTUDIO_for_ARM_x86_64_8.0.0/ARMTools/bin/../lib/gcc/arm-atollic-eabi/6.3.1/../../../../arm-atollic-eabi/lib/armv7-ar/thumb/fpu/libc_nano.a(lib_a-nano-reallocr.o)
                                                  /opt/Atollic_TrueSTUDIO_for_ARM_x86_64_8.0.0/ARMTools/bin/../lib/gcc/arm-atollic-eabi/6.3.1/../../../../arm-atollic-eabi/lib/armv7-ar/thumb/fpu/libc_nano.a(lib_a-nano-svfscanf.o)
                                                  /opt/Atollic_TrueSTUDIO_for_ARM_x86_64_8.0.0/ARMTools/bin/../lib/gcc/arm-atollic-eabi/6.3.1/../../../../arm-atollic-eabi/lib/armv7-ar/thumb/fpu/libc_nano.a(lib_a-nano-svfprintf.o)
                                                  /opt/Atollic_TrueSTUDIO_for_ARM_x86_64_8.0.0/ARMTools/bin/../lib/gcc/arm-atollic-eabi/6.3.1/../../../../arm-atollic-eabi/lib/armv7-ar/thumb/fpu/libc_nano.a(lib_a-fflush.o)
                                                  /opt/Atollic_TrueSTUDIO_for_ARM_x86_64_8.0.0/ARMTools/bin/../lib/gcc/arm-atollic-eabi/6.3.1/../../../../arm-atollic-eabi/lib/armv7-ar/thumb/fpu/libc_nano.a(lib_a-setvbuf.o)
                                                  /opt/Atollic_TrueSTUDIO_for_ARM_x86_64_8.0.0/ARMTools/bin/../lib/gcc/arm-atollic-eabi/6.3.1/../../../../arm-atollic-eabi/lib/armv7-ar/thumb/fpu/libc_nano.a(lib_a-refill.o)
                                                  /opt/Atollic_TrueSTUDIO_for_ARM_x86_64_8.0.0/ARMTools/bin/../lib/gcc/arm-atollic-eabi/6.3.1/../../../../arm-atollic-eabi/lib/armv7-ar/thumb/fpu/libc_nano.a(lib_a-reent.o)
                                                  /opt/Atollic_TrueSTUDIO_for_ARM_x86_64_8.0.0/ARMTools/bin/../lib/gcc/arm-atollic-eabi/6.3.1/../../../../arm-atollic-eabi/lib/armv7-ar/thumb/fpu/libc_nano.a(lib_a-malloc.o)
_fstat                                            libmbed.a(retarget.o)
                                                  /opt/Atollic_TrueSTUDIO_for_ARM_x86_64_8.0.0/ARMTools/bin/../lib/gcc/arm-atollic-eabi/6.3.1/../../../../arm-atollic-eabi/lib/armv7-ar/thumb/fpu/libc_nano.a(lib_a-fstatr.o)
_fstat_r                                          /opt/Atollic_TrueSTUDIO_for_ARM_x86_64_8.0.0/ARMTools/bin/../lib/gcc/arm-atollic-eabi/6.3.1/../../../../arm-atollic-eabi/lib/armv7-ar/thumb/fpu/libc_nano.a(lib_a-fstatr.o)
                                                  /opt/Atollic_TrueSTUDIO_for_ARM_x86_64_8.0.0/ARMTools/bin/../lib/gcc/arm-atollic-eabi/6.3.1/../../../../arm-atollic-eabi/lib/armv7-ar/thumb/fpu/libc_nano.a(lib_a-makebuf.o)
_fwalk                                            /opt/Atollic_TrueSTUDIO_for_ARM_x86_64_8.0.0/ARMTools/bin/../lib/gcc/arm-atollic-eabi/6.3.1/../../../../arm-atollic-eabi/lib/armv7-ar/thumb/fpu/libc_nano.a(lib_a-fwalk.o)
                                                  /opt/Atollic_TrueSTUDIO_for_ARM_x86_64_8.0.0/ARMTools/bin/../lib/gcc/arm-atollic-eabi/6.3.1/../../../../arm-atollic-eabi/lib/armv7-ar/thumb/fpu/libc_nano.a(lib_a-refill.o)
                                                  /opt/Atollic_TrueSTUDIO_for_ARM_x86_64_8.0.0/ARMTools/bin/../lib/gcc/arm-atollic-eabi/6.3.1/../../../../arm-atollic-eabi/lib/armv7-ar/thumb/fpu/libc_nano.a(lib_a-findfp.o)
_fwalk_reent                                      /opt/Atollic_TrueSTUDIO_for_ARM_x86_64_8.0.0/ARMTools/bin/../lib/gcc/arm-atollic-eabi/6.3.1/../../../../arm-atollic-eabi/lib/armv7-ar/thumb/fpu/libc_nano.a(lib_a-fwalk.o)
                                                  /opt/Atollic_TrueSTUDIO_for_ARM_x86_64_8.0.0/ARMTools/bin/../lib/gcc/arm-atollic-eabi/6.3.1/../../../../arm-atollic-eabi/lib/armv7-ar/thumb/fpu/libc_nano.a(lib_a-fflush.o)
                                                  /opt/Atollic_TrueSTUDIO_for_ARM_x86_64_8.0.0/ARMTools/bin/../lib/gcc/arm-atollic-eabi/6.3.1/../../../../arm-atollic-eabi/lib/armv7-ar/thumb/fpu/libc_nano.a(lib_a-findfp.o)
_getpid                                           /opt/Atollic_TrueSTUDIO_for_ARM_x86_64_8.0.0/ARMTools/bin/../lib/gcc/arm-atollic-eabi/6.3.1/../../../../arm-atollic-eabi/lib/armv7-ar/thumb/fpu/libnosys.a(getpid.o)
                                                  /opt/Atollic_TrueSTUDIO_for_ARM_x86_64_8.0.0/ARMTools/bin/../lib/gcc/arm-atollic-eabi/6.3.1/../../../../arm-atollic-eabi/lib/armv7-ar/thumb/fpu/libc_nano.a(lib_a-signalr.o)
_getpid_r                                         /opt/Atollic_TrueSTUDIO_for_ARM_x86_64_8.0.0/ARMTools/bin/../lib/gcc/arm-atollic-eabi/6.3.1/../../../../arm-atollic-eabi/lib/armv7-ar/thumb/fpu/libc_nano.a(lib_a-signalr.o)
                                                  /opt/Atollic_TrueSTUDIO_for_ARM_x86_64_8.0.0/ARMTools/bin/../lib/gcc/arm-atollic-eabi/6.3.1/../../../../arm-atollic-eabi/lib/armv7-ar/thumb/fpu/libc_nano.a(lib_a-signal.o)
_global_impure_ptr                                /opt/Atollic_TrueSTUDIO_for_ARM_x86_64_8.0.0/ARMTools/bin/../lib/gcc/arm-atollic-eabi/6.3.1/../../../../arm-atollic-eabi/lib/armv7-ar/thumb/fpu/libc_nano.a(lib_a-impure.o)
                                                  /opt/Atollic_TrueSTUDIO_for_ARM_x86_64_8.0.0/ARMTools/bin/../lib/gcc/arm-atollic-eabi/6.3.1/../../../../arm-atollic-eabi/lib/armv7-ar/thumb/fpu/libc_nano.a(lib_a-fflush.o)
                                                  /opt/Atollic_TrueSTUDIO_for_ARM_x86_64_8.0.0/ARMTools/bin/../lib/gcc/arm-atollic-eabi/6.3.1/../../../../arm-atollic-eabi/lib/armv7-ar/thumb/fpu/libc_nano.a(lib_a-refill.o)
                                                  /opt/Atollic_TrueSTUDIO_for_ARM_x86_64_8.0.0/ARMTools/bin/../lib/gcc/arm-atollic-eabi/6.3.1/../../../../arm-atollic-eabi/lib/armv7-ar/thumb/fpu/libc_nano.a(lib_a-findfp.o)
                                                  /opt/Atollic_TrueSTUDIO_for_ARM_x86_64_8.0.0/ARMTools/bin/../lib/gcc/arm-atollic-eabi/6.3.1/../../../../arm-atollic-eabi/lib/armv7-ar/thumb/fpu/libc_nano.a(lib_a-exit.o)
_impure_ptr                                       /opt/Atollic_TrueSTUDIO_for_ARM_x86_64_8.0.0/ARMTools/bin/../lib/gcc/arm-atollic-eabi/6.3.1/../../../../arm-atollic-eabi/lib/armv7-ar/thumb/fpu/libc_nano.a(lib_a-impure.o)
                                                  /opt/Atollic_TrueSTUDIO_for_ARM_x86_64_8.0.0/ARMTools/bin/../lib/gcc/arm-atollic-eabi/6.3.1/../../../../arm-atollic-eabi/lib/armv7-ar/thumb/fpu/libc_nano.a(lib_a-wctomb_r.o)
                                                  /opt/Atollic_TrueSTUDIO_for_ARM_x86_64_8.0.0/ARMTools/bin/../lib/gcc/arm-atollic-eabi/6.3.1/../../../../arm-atollic-eabi/lib/armv7-ar/thumb/fpu/libc_nano.a(lib_a-ungetc.o)
                                                  /opt/Atollic_TrueSTUDIO_for_ARM_x86_64_8.0.0/ARMTools/bin/../lib/gcc/arm-atollic-eabi/6.3.1/../../../../arm-atollic-eabi/lib/armv7-ar/thumb/fpu/libc_nano.a(lib_a-strtoul.o)
                                                  /opt/Atollic_TrueSTUDIO_for_ARM_x86_64_8.0.0/ARMTools/bin/../lib/gcc/arm-atollic-eabi/6.3.1/../../../../arm-atollic-eabi/lib/armv7-ar/thumb/fpu/libc_nano.a(lib_a-mbtowc_r.o)
                                                  /opt/Atollic_TrueSTUDIO_for_ARM_x86_64_8.0.0/ARMTools/bin/../lib/gcc/arm-atollic-eabi/6.3.1/../../../../arm-atollic-eabi/lib/armv7-ar/thumb/fpu/libc_nano.a(lib_a-localeconv.o)
                                                  /opt/Atollic_TrueSTUDIO_for_ARM_x86_64_8.0.0/ARMTools/bin/../lib/gcc/arm-atollic-eabi/6.3.1/../../../../arm-atollic-eabi/lib/armv7-ar/thumb/fpu/libc_nano.a(lib_a-locale.o)
                                                  /opt/Atollic_TrueSTUDIO_for_ARM_x86_64_8.0.0/ARMTools/bin/../lib/gcc/arm-atollic-eabi/6.3.1/../../../../arm-atollic-eabi/lib/armv7-ar/thumb/fpu/libc_nano.a(lib_a-fflush.o)
                                                  /opt/Atollic_TrueSTUDIO_for_ARM_x86_64_8.0.0/ARMTools/bin/../lib/gcc/arm-atollic-eabi/6.3.1/../../../../arm-atollic-eabi/lib/armv7-ar/thumb/fpu/libc_nano.a(lib_a-strtol.o)
                                                  /opt/Atollic_TrueSTUDIO_for_ARM_x86_64_8.0.0/ARMTools/bin/../lib/gcc/arm-atollic-eabi/6.3.1/../../../../arm-atollic-eabi/lib/armv7-ar/thumb/fpu/libc_nano.a(lib_a-strtod.o)
                                                  /opt/Atollic_TrueSTUDIO_for_ARM_x86_64_8.0.0/ARMTools/bin/../lib/gcc/arm-atollic-eabi/6.3.1/../../../../arm-atollic-eabi/lib/armv7-ar/thumb/fpu/libc_nano.a(lib_a-sscanf.o)
                                                  /opt/Atollic_TrueSTUDIO_for_ARM_x86_64_8.0.0/ARMTools/bin/../lib/gcc/arm-atollic-eabi/6.3.1/../../../../arm-atollic-eabi/lib/armv7-ar/thumb/fpu/libc_nano.a(lib_a-sprintf.o)
                                                  /opt/Atollic_TrueSTUDIO_for_ARM_x86_64_8.0.0/ARMTools/bin/../lib/gcc/arm-atollic-eabi/6.3.1/../../../../arm-atollic-eabi/lib/armv7-ar/thumb/fpu/libc_nano.a(lib_a-signal.o)
                                                  /opt/Atollic_TrueSTUDIO_for_ARM_x86_64_8.0.0/ARMTools/bin/../lib/gcc/arm-atollic-eabi/6.3.1/../../../../arm-atollic-eabi/lib/armv7-ar/thumb/fpu/libc_nano.a(lib_a-setvbuf.o)
                                                  /opt/Atollic_TrueSTUDIO_for_ARM_x86_64_8.0.0/ARMTools/bin/../lib/gcc/arm-atollic-eabi/6.3.1/../../../../arm-atollic-eabi/lib/armv7-ar/thumb/fpu/libc_nano.a(lib_a-rget.o)
                                                  /opt/Atollic_TrueSTUDIO_for_ARM_x86_64_8.0.0/ARMTools/bin/../lib/gcc/arm-atollic-eabi/6.3.1/../../../../arm-atollic-eabi/lib/armv7-ar/thumb/fpu/libc_nano.a(lib_a-reent.o)
                                                  /opt/Atollic_TrueSTUDIO_for_ARM_x86_64_8.0.0/ARMTools/bin/../lib/gcc/arm-atollic-eabi/6.3.1/../../../../arm-atollic-eabi/lib/armv7-ar/thumb/fpu/libc_nano.a(lib_a-malloc.o)
                                                  /opt/Atollic_TrueSTUDIO_for_ARM_x86_64_8.0.0/ARMTools/bin/../lib/gcc/arm-atollic-eabi/6.3.1/../../../../arm-atollic-eabi/lib/armv7-ar/thumb/fpu/libc_nano.a(lib_a-findfp.o)
                                                  /opt/Atollic_TrueSTUDIO_for_ARM_x86_64_8.0.0/ARMTools/bin/../lib/gcc/arm-atollic-eabi/6.3.1/../../../../arm-atollic-eabi/lib/armv7-ar/thumb/fpu/libc_nano.a(lib_a-fgets.o)
                                                  /opt/Atollic_TrueSTUDIO_for_ARM_x86_64_8.0.0/ARMTools/bin/../lib/gcc/arm-atollic-eabi/6.3.1/../../../../arm-atollic-eabi/lib/armv7-ar/thumb/fpu/libc_nano.a(lib_a-fgetc.o)
                                                  /opt/Atollic_TrueSTUDIO_for_ARM_x86_64_8.0.0/ARMTools/bin/../lib/gcc/arm-atollic-eabi/6.3.1/../../../../arm-atollic-eabi/lib/armv7-ar/thumb/fpu/libc_nano.a(lib_a-errno.o)
_init_signal                                      /opt/Atollic_TrueSTUDIO_for_ARM_x86_64_8.0.0/ARMTools/bin/../lib/gcc/arm-atollic-eabi/6.3.1/../../../../arm-atollic-eabi/lib/armv7-ar/thumb/fpu/libc_nano.a(lib_a-signal.o)
_init_signal_r                                    /opt/Atollic_TrueSTUDIO_for_ARM_x86_64_8.0.0/ARMTools/bin/../lib/gcc/arm-atollic-eabi/6.3.1/../../../../arm-atollic-eabi/lib/armv7-ar/thumb/fpu/libc_nano.a(lib_a-signal.o)
_isatty                                           libmbed.a(retarget.o)
                                                  /opt/Atollic_TrueSTUDIO_for_ARM_x86_64_8.0.0/ARMTools/bin/../lib/gcc/arm-atollic-eabi/6.3.1/../../../../arm-atollic-eabi/lib/armv7-ar/thumb/fpu/libc_nano.a(lib_a-isattyr.o)
_isatty_r                                         /opt/Atollic_TrueSTUDIO_for_ARM_x86_64_8.0.0/ARMTools/bin/../lib/gcc/arm-atollic-eabi/6.3.1/../../../../arm-atollic-eabi/lib/armv7-ar/thumb/fpu/libc_nano.a(lib_a-isattyr.o)
                                                  /opt/Atollic_TrueSTUDIO_for_ARM_x86_64_8.0.0/ARMTools/bin/../lib/gcc/arm-atollic-eabi/6.3.1/../../../../arm-atollic-eabi/lib/armv7-ar/thumb/fpu/libc_nano.a(lib_a-makebuf.o)
_kernel_almcb_table                               kernel_cfg.o
_kernel_alminib_table                             kernel_cfg.o
_kernel_arm_memory_area                           ./libkernel.a(target_kernel_impl.o)
                                                  ./libkernel.a(core_kernel_impl.o)
_kernel_arm_mmu_initialize                        ./libkernel.a(core_kernel_impl.o)
_kernel_arm_tnum_memory_area                      ./libkernel.a(target_kernel_impl.o)
                                                  ./libkernel.a(core_kernel_impl.o)
_kernel_boundary_evttim                           ./libkernel.a(time_event.o)
_kernel_call_exit_kernel                          ./libkernel.a(core_support.o)
                                                  ./libkernel.a(startup.o)
_kernel_call_inirtn                               kernel_cfg.o
                                                  ./libkernel.a(startup.o)
_kernel_call_terrtn                               kernel_cfg.o
                                                  ./libkernel.a(startup.o)
_kernel_change_priority                           ./libkernel.a(task.o)
_kernel_check_adjtim                              ./libkernel.a(time_event.o)
_kernel_chip_initialize                           ./libkernel.a(chip_kernel_impl.o)
_kernel_chip_terminate                            ./libkernel.a(chip_kernel_impl.o)
                                                  ./libkernel.a(target_kernel_impl.o)
_kernel_core_initialize                           ./libkernel.a(core_kernel_impl.o)
                                                  ./libkernel.a(chip_kernel_impl.o)
_kernel_core_terminate                            ./libkernel.a(core_kernel_impl.o)
                                                  ./libkernel.a(chip_kernel_impl.o)
_kernel_current_evttim                            ./libkernel.a(time_event.o)
_kernel_current_hrtcnt                            ./libkernel.a(time_event.o)
                                                  ./libkernel.a(startup.o)
_kernel_cyccb_table                               kernel_cfg.o
_kernel_cycinib_table                             kernel_cfg.o
_kernel_dabort_handler                            ./libkernel.a(core_support.o)
_kernel_default_exc_handler                       ./libkernel.a(core_kernel_impl.o)
                                                  kernel_cfg.o
_kernel_default_int_handler                       ./libkernel.a(core_kernel_impl.o)
                                                  kernel_cfg.o
_kernel_dispatch                                  ./libkernel.a(core_support.o)
                                                  ./libkernel.a(interrupt.o)
                                                  ./libkernel.a(sys_manage.o)
                                                  ./libkernel.a(semaphore.o)
                                                  ./libkernel.a(task_term.o)
                                                  ./libkernel.a(task_sync.o)
_kernel_dspflg                                    ./libkernel.a(task.o)
                                                  ./libkernel.a(interrupt.o)
                                                  ./libkernel.a(sys_manage.o)
                                                  ./libkernel.a(semaphore.o)
                                                  ./libkernel.a(task_term.o)
                                                  ./libkernel.a(task_sync.o)
_kernel_dtqcb_table                               kernel_cfg.o
_kernel_dtqinib_table                             kernel_cfg.o
_kernel_enadsp                                    ./libkernel.a(task.o)
                                                  ./libkernel.a(interrupt.o)
                                                  ./libkernel.a(sys_manage.o)
                                                  ./libkernel.a(task_term.o)
_kernel_exc_table                                 kernel_cfg.o
                                                  ./libkernel.a(core_support.o)
_kernel_excpt_nest_count                          ./libkernel.a(core_kernel_impl.o)
                                                  ./libkernel.a(interrupt.o)
                                                  ./libkernel.a(sys_manage.o)
                                                  ./libkernel.a(semaphore.o)
                                                  ./libkernel.a(task_term.o)
                                                  ./libkernel.a(task_sync.o)
                                                  ./libkernel.a(time_event.o)
                                                  ./libkernel.a(core_support.o)
_kernel_exit_and_dispatch                         ./libkernel.a(core_support.o)
                                                  ./libkernel.a(interrupt.o)
                                                  ./libkernel.a(sys_manage.o)
                                                  ./libkernel.a(task_term.o)
_kernel_exit_kernel                               ./libkernel.a(startup.o)
                                                  ./libkernel.a(core_support.o)
_kernel_fiq_handler                               ./libkernel.a(core_support.o)
_kernel_flgcb_table                               kernel_cfg.o
_kernel_flginib_table                             kernel_cfg.o
_kernel_gicc_initialize                           ./libkernel.a(gic_kernel_impl.o)
                                                  ./libkernel.a(chip_kernel_impl.o)
_kernel_gicc_terminate                            ./libkernel.a(gic_kernel_impl.o)
                                                  ./libkernel.a(chip_kernel_impl.o)
_kernel_gicd_initialize                           ./libkernel.a(gic_kernel_impl.o)
                                                  ./libkernel.a(chip_kernel_impl.o)
_kernel_gicd_terminate                            ./libkernel.a(gic_kernel_impl.o)
                                                  ./libkernel.a(chip_kernel_impl.o)
_kernel_in_signal_time                            ./libkernel.a(time_event.o)
_kernel_inh_table                                 kernel_cfg.o
                                                  ./libkernel.a(core_support.o)
_kernel_init_wait_queue                           ./libkernel.a(wait.o)
                                                  ./libkernel.a(semaphore.o)
_kernel_initialize_interrupt                      ./libkernel.a(chip_kernel_impl.o)
                                                  kernel_cfg.o
_kernel_initialize_object                         kernel_cfg.o
                                                  ./libkernel.a(startup.o)
_kernel_initialize_semaphore                      ./libkernel.a(semaphore.o)
                                                  kernel_cfg.o
_kernel_initialize_task                           ./libkernel.a(task.o)
                                                  kernel_cfg.o
_kernel_initialize_tmevt                          ./libkernel.a(time_event.o)
                                                  ./libkernel.a(startup.o)
_kernel_intcfg_table                              kernel_cfg.o
                                                  ./libkernel.a(interrupt.o)
_kernel_inthdr_231                                kernel_cfg.o
_kernel_inthdr_232                                kernel_cfg.o
_kernel_intinib_table                             kernel_cfg.o
                                                  ./libkernel.a(chip_kernel_impl.o)
_kernel_irc_begin_exc                             ./libkernel.a(gic_support.o)
                                                  ./libkernel.a(core_support.o)
_kernel_irc_begin_int                             ./libkernel.a(gic_support.o)
                                                  ./libkernel.a(core_support.o)
_kernel_irc_end_exc                               ./libkernel.a(gic_support.o)
                                                  ./libkernel.a(core_support.o)
_kernel_irc_end_int                               ./libkernel.a(gic_support.o)
                                                  ./libkernel.a(core_support.o)
_kernel_irc_get_intpri                            ./libkernel.a(gic_support.o)
                                                  ./libkernel.a(core_support.o)
_kernel_irq_handler                               ./libkernel.a(core_support.o)
                                                  libmbed.a(startup_RZ1AH.o)
_kernel_istk                                      kernel_cfg.o
_kernel_istkpt                                    kernel_cfg.o
                                                  ./libkernel.a(core_support.o)
                                                  start.o
_kernel_istksz                                    kernel_cfg.o
_kernel_kerflg                                    ./libkernel.a(startup.o)
                                                  ./libkernel.a(sys_manage.o)
_kernel_make_active                               ./libkernel.a(task.o)
_kernel_make_dormant                              ./libkernel.a(task.o)
_kernel_make_non_runnable                         ./libkernel.a(task.o)
                                                  ./libkernel.a(wait.o)
                                                  ./libkernel.a(task_sync.o)
_kernel_make_runnable                             ./libkernel.a(task.o)
                                                  ./libkernel.a(wait.o)
                                                  ./libkernel.a(task_term.o)
                                                  ./libkernel.a(task_sync.o)
_kernel_make_wait_tmout                           ./libkernel.a(wait.o)
                                                  ./libkernel.a(task_sync.o)
_kernel_monotonic_evttim                          ./libkernel.a(time_event.o)
_kernel_mpfcb_table                               kernel_cfg.o
_kernel_mpfinib_table                             kernel_cfg.o
_kernel_mtxcb_table                               kernel_cfg.o
_kernel_mtxhook_check_ceilpri                     ./libkernel.a(taskhook.o)
_kernel_mtxhook_release_all                       ./libkernel.a(taskhook.o)
                                                  ./libkernel.a(task.o)
_kernel_mtxhook_scan_ceilmtx                      ./libkernel.a(taskhook.o)
_kernel_mtxinib_table                             kernel_cfg.o
_kernel_p_runtsk                                  ./libkernel.a(task.o)
                                                  ./libkernel.a(wait.o)
                                                  ./libkernel.a(interrupt.o)
                                                  ./libkernel.a(sys_manage.o)
                                                  ./libkernel.a(semaphore.o)
                                                  ./libkernel.a(task_term.o)
                                                  ./libkernel.a(task_sync.o)
                                                  ./libkernel.a(core_support.o)
_kernel_p_schedtsk                                ./libkernel.a(task.o)
                                                  ./libkernel.a(interrupt.o)
                                                  ./libkernel.a(sys_manage.o)
                                                  ./libkernel.a(semaphore.o)
                                                  ./libkernel.a(task_term.o)
                                                  ./libkernel.a(task_sync.o)
                                                  ./libkernel.a(core_support.o)
_kernel_pabort_handler                            ./libkernel.a(core_support.o)
_kernel_pdqcb_table                               kernel_cfg.o
_kernel_pdqinib_table                             kernel_cfg.o
_kernel_ready_primap                              ./libkernel.a(task.o)
_kernel_ready_queue                               ./libkernel.a(task.o)
                                                  ./libkernel.a(sys_manage.o)
_kernel_rotate_ready_queue                        ./libkernel.a(task.o)
                                                  ./libkernel.a(sys_manage.o)
_kernel_search_schedtsk                           ./libkernel.a(task.o)
                                                  ./libkernel.a(interrupt.o)
                                                  ./libkernel.a(sys_manage.o)
                                                  ./libkernel.a(task_term.o)
_kernel_semcb_table                               kernel_cfg.o
                                                  ./libkernel.a(semaphore.o)
_kernel_seminib_table                             kernel_cfg.o
                                                  ./libkernel.a(semaphore.o)
_kernel_set_hrt_event                             ./libkernel.a(time_event.o)
                                                  ./libkernel.a(startup.o)
_kernel_signal_time                               ./libkernel.a(time_event.o)
                                                  ./libkernel.a(chip_timer.o)
_kernel_start_dispatch                            ./libkernel.a(core_support.o)
                                                  ./libkernel.a(startup.o)
_kernel_start_r                                   ./libkernel.a(core_support.o)
                                                  ./libkernel.a(task.o)
_kernel_svc_handler                               ./libkernel.a(core_support.o)
_kernel_systim_offset                             ./libkernel.a(time_event.o)
_kernel_target_exit                               ./libkernel.a(target_kernel_impl.o)
                                                  ./libkernel.a(startup.o)
_kernel_target_hrt_handler                        ./libkernel.a(chip_timer.o)
                                                  kernel_cfg.o
_kernel_target_hrt_initialize                     ./libkernel.a(chip_timer.o)
                                                  kernel_cfg.o
_kernel_target_hrt_raise_event                    ./libkernel.a(chip_timer.o)
                                                  ./libkernel.a(time_event.o)
_kernel_target_hrt_set_event                      ./libkernel.a(chip_timer.o)
                                                  ./libkernel.a(time_event.o)
_kernel_target_hrt_terminate                      ./libkernel.a(chip_timer.o)
                                                  kernel_cfg.o
_kernel_target_initialize                         ./libkernel.a(target_kernel_impl.o)
                                                  ./libkernel.a(startup.o)
_kernel_task_terminate                            ./libkernel.a(task.o)
                                                  ./libkernel.a(interrupt.o)
                                                  ./libkernel.a(sys_manage.o)
                                                  ./libkernel.a(task_term.o)
_kernel_tcb_table                                 kernel_cfg.o
                                                  ./libkernel.a(sys_manage.o)
                                                  ./libkernel.a(semaphore.o)
                                                  ./libkernel.a(task_term.o)
                                                  ./libkernel.a(task_sync.o)
                                                  ./libkernel.a(task.o)
                                                  ./libkernel.a(core_support.o)
_kernel_tinib_table                               kernel_cfg.o
                                                  ./libkernel.a(task.o)
_kernel_tmax_almid                                kernel_cfg.o
_kernel_tmax_cycid                                kernel_cfg.o
_kernel_tmax_dtqid                                kernel_cfg.o
_kernel_tmax_flgid                                kernel_cfg.o
_kernel_tmax_mpfid                                kernel_cfg.o
_kernel_tmax_mtxid                                kernel_cfg.o
_kernel_tmax_pdqid                                kernel_cfg.o
_kernel_tmax_semid                                kernel_cfg.o
                                                  ./libkernel.a(semaphore.o)
_kernel_tmax_tskid                                kernel_cfg.o
                                                  ./libkernel.a(task_term.o)
                                                  ./libkernel.a(task_sync.o)
                                                  ./libkernel.a(task.o)
_kernel_tmevt_down                                ./libkernel.a(time_event.o)
_kernel_tmevt_heap                                kernel_cfg.o
                                                  ./libkernel.a(time_event.o)
_kernel_tmevt_lefttim                             ./libkernel.a(time_event.o)
_kernel_tmevt_up                                  ./libkernel.a(time_event.o)
_kernel_tmevtb_dequeue                            ./libkernel.a(time_event.o)
                                                  ./libkernel.a(wait.o)
                                                  ./libkernel.a(task_term.o)
                                                  ./libkernel.a(task_sync.o)
                                                  ./libkernel.a(task.o)
_kernel_tmevtb_enqueue                            ./libkernel.a(time_event.o)
                                                  ./libkernel.a(wait.o)
                                                  ./libkernel.a(task_sync.o)
_kernel_tmevtb_register                           ./libkernel.a(time_event.o)
_kernel_tnum_cfg_intno                            kernel_cfg.o
                                                  ./libkernel.a(chip_kernel_impl.o)
_kernel_torder_table                              kernel_cfg.o
                                                  ./libkernel.a(task.o)
_kernel_undef_handler                             ./libkernel.a(core_support.o)
_kernel_update_current_evttim                     ./libkernel.a(time_event.o)
_kernel_wait_complete                             ./libkernel.a(wait.o)
                                                  ./libkernel.a(semaphore.o)
                                                  ./libkernel.a(task_sync.o)
_kernel_wait_tmout                                ./libkernel.a(wait.o)
_kernel_wait_tmout_ok                             ./libkernel.a(wait.o)
                                                  ./libkernel.a(task_sync.o)
_kernel_wobj_make_wait                            ./libkernel.a(wait.o)
                                                  ./libkernel.a(semaphore.o)
_kernel_wobj_make_wait_tmout                      ./libkernel.a(wait.o)
                                                  ./libkernel.a(semaphore.o)
_kernel_xlog_fsr                                  ./libkernel.a(core_kernel_impl.o)
_kernel_xlog_sys                                  ./libkernel.a(core_kernel_impl.o)
_kill                                             /opt/Atollic_TrueSTUDIO_for_ARM_x86_64_8.0.0/ARMTools/bin/../lib/gcc/arm-atollic-eabi/6.3.1/../../../../arm-atollic-eabi/lib/armv7-ar/thumb/fpu/libnosys.a(kill.o)
                                                  /opt/Atollic_TrueSTUDIO_for_ARM_x86_64_8.0.0/ARMTools/bin/../lib/gcc/arm-atollic-eabi/6.3.1/../../../../arm-atollic-eabi/lib/armv7-ar/thumb/fpu/libc_nano.a(lib_a-signalr.o)
_kill_r                                           /opt/Atollic_TrueSTUDIO_for_ARM_x86_64_8.0.0/ARMTools/bin/../lib/gcc/arm-atollic-eabi/6.3.1/../../../../arm-atollic-eabi/lib/armv7-ar/thumb/fpu/libc_nano.a(lib_a-signalr.o)
                                                  /opt/Atollic_TrueSTUDIO_for_ARM_x86_64_8.0.0/ARMTools/bin/../lib/gcc/arm-atollic-eabi/6.3.1/../../../../arm-atollic-eabi/lib/armv7-ar/thumb/fpu/libc_nano.a(lib_a-signal.o)
_localeconv_r                                     /opt/Atollic_TrueSTUDIO_for_ARM_x86_64_8.0.0/ARMTools/bin/../lib/gcc/arm-atollic-eabi/6.3.1/../../../../arm-atollic-eabi/lib/armv7-ar/thumb/fpu/libc_nano.a(lib_a-localeconv.o)
                                                  /opt/Atollic_TrueSTUDIO_for_ARM_x86_64_8.0.0/ARMTools/bin/../lib/gcc/arm-atollic-eabi/6.3.1/../../../../arm-atollic-eabi/lib/armv7-ar/thumb/fpu/libc_nano.a(lib_a-nano-vfprintf_float.o)
_lseek                                            libmbed.a(retarget.o)
                                                  /opt/Atollic_TrueSTUDIO_for_ARM_x86_64_8.0.0/ARMTools/bin/../lib/gcc/arm-atollic-eabi/6.3.1/../../../../arm-atollic-eabi/lib/armv7-ar/thumb/fpu/libc_nano.a(lib_a-lseekr.o)
_lseek_r                                          /opt/Atollic_TrueSTUDIO_for_ARM_x86_64_8.0.0/ARMTools/bin/../lib/gcc/arm-atollic-eabi/6.3.1/../../../../arm-atollic-eabi/lib/armv7-ar/thumb/fpu/libc_nano.a(lib_a-lseekr.o)
                                                  /opt/Atollic_TrueSTUDIO_for_ARM_x86_64_8.0.0/ARMTools/bin/../lib/gcc/arm-atollic-eabi/6.3.1/../../../../arm-atollic-eabi/lib/armv7-ar/thumb/fpu/libc_nano.a(lib_a-stdio.o)
_malloc_r                                         /opt/Atollic_TrueSTUDIO_for_ARM_x86_64_8.0.0/ARMTools/bin/../lib/gcc/arm-atollic-eabi/6.3.1/../../../../arm-atollic-eabi/lib/armv7-ar/thumb/fpu/libc_nano.a(lib_a-nano-mallocr.o)
                                                  /opt/Atollic_TrueSTUDIO_for_ARM_x86_64_8.0.0/ARMTools/bin/../lib/gcc/arm-atollic-eabi/6.3.1/../../../../arm-atollic-eabi/lib/armv7-ar/thumb/fpu/libc_nano.a(lib_a-nano-reallocr.o)
                                                  /opt/Atollic_TrueSTUDIO_for_ARM_x86_64_8.0.0/ARMTools/bin/../lib/gcc/arm-atollic-eabi/6.3.1/../../../../arm-atollic-eabi/lib/armv7-ar/thumb/fpu/libc_nano.a(lib_a-ungetc.o)
                                                  /opt/Atollic_TrueSTUDIO_for_ARM_x86_64_8.0.0/ARMTools/bin/../lib/gcc/arm-atollic-eabi/6.3.1/../../../../arm-atollic-eabi/lib/armv7-ar/thumb/fpu/libc_nano.a(lib_a-nano-svfprintf.o)
                                                  /opt/Atollic_TrueSTUDIO_for_ARM_x86_64_8.0.0/ARMTools/bin/../lib/gcc/arm-atollic-eabi/6.3.1/../../../../arm-atollic-eabi/lib/armv7-ar/thumb/fpu/libc_nano.a(lib_a-nano-callocr.o)
                                                  /opt/Atollic_TrueSTUDIO_for_ARM_x86_64_8.0.0/ARMTools/bin/../lib/gcc/arm-atollic-eabi/6.3.1/../../../../arm-atollic-eabi/lib/armv7-ar/thumb/fpu/libc_nano.a(lib_a-makebuf.o)
                                                  /opt/Atollic_TrueSTUDIO_for_ARM_x86_64_8.0.0/ARMTools/bin/../lib/gcc/arm-atollic-eabi/6.3.1/../../../../arm-atollic-eabi/lib/armv7-ar/thumb/fpu/libc_nano.a(lib_a-signal.o)
                                                  /opt/Atollic_TrueSTUDIO_for_ARM_x86_64_8.0.0/ARMTools/bin/../lib/gcc/arm-atollic-eabi/6.3.1/../../../../arm-atollic-eabi/lib/armv7-ar/thumb/fpu/libc_nano.a(lib_a-malloc.o)
                                                  /opt/Atollic_TrueSTUDIO_for_ARM_x86_64_8.0.0/ARMTools/bin/../lib/gcc/arm-atollic-eabi/6.3.1/../../../../arm-atollic-eabi/lib/armv7-ar/thumb/fpu/libc_nano.a(lib_a-findfp.o)
_malloc_usable_size_r                             /opt/Atollic_TrueSTUDIO_for_ARM_x86_64_8.0.0/ARMTools/bin/../lib/gcc/arm-atollic-eabi/6.3.1/../../../../arm-atollic-eabi/lib/armv7-ar/thumb/fpu/libc_nano.a(lib_a-nano-msizer.o)
                                                  /opt/Atollic_TrueSTUDIO_for_ARM_x86_64_8.0.0/ARMTools/bin/../lib/gcc/arm-atollic-eabi/6.3.1/../../../../arm-atollic-eabi/lib/armv7-ar/thumb/fpu/libc_nano.a(lib_a-nano-reallocr.o)
_mbtowc_r                                         /opt/Atollic_TrueSTUDIO_for_ARM_x86_64_8.0.0/ARMTools/bin/../lib/gcc/arm-atollic-eabi/6.3.1/../../../../arm-atollic-eabi/lib/armv7-ar/thumb/fpu/libc_nano.a(lib_a-mbtowc_r.o)
_mprec_log10                                      /opt/Atollic_TrueSTUDIO_for_ARM_x86_64_8.0.0/ARMTools/bin/../lib/gcc/arm-atollic-eabi/6.3.1/../../../../arm-atollic-eabi/lib/armv7-ar/thumb/fpu/libc_nano.a(lib_a-mprec.o)
_open                                             libmbed.a(retarget.o)
_printf_common                                    /opt/Atollic_TrueSTUDIO_for_ARM_x86_64_8.0.0/ARMTools/bin/../lib/gcc/arm-atollic-eabi/6.3.1/../../../../arm-atollic-eabi/lib/armv7-ar/thumb/fpu/libc_nano.a(lib_a-nano-vfprintf_i.o)
                                                  /opt/Atollic_TrueSTUDIO_for_ARM_x86_64_8.0.0/ARMTools/bin/../lib/gcc/arm-atollic-eabi/6.3.1/../../../../arm-atollic-eabi/lib/armv7-ar/thumb/fpu/libc_nano.a(lib_a-nano-vfprintf_float.o)
_printf_float                                     /opt/Atollic_TrueSTUDIO_for_ARM_x86_64_8.0.0/ARMTools/bin/../lib/gcc/arm-atollic-eabi/6.3.1/../../../../arm-atollic-eabi/lib/armv7-ar/thumb/fpu/libc_nano.a(lib_a-nano-vfprintf_float.o)
                                                  /opt/Atollic_TrueSTUDIO_for_ARM_x86_64_8.0.0/ARMTools/bin/../lib/gcc/arm-atollic-eabi/6.3.1/../../../../arm-atollic-eabi/lib/armv7-ar/thumb/fpu/libc_nano.a(lib_a-nano-svfprintf.o)
_printf_i                                         /opt/Atollic_TrueSTUDIO_for_ARM_x86_64_8.0.0/ARMTools/bin/../lib/gcc/arm-atollic-eabi/6.3.1/../../../../arm-atollic-eabi/lib/armv7-ar/thumb/fpu/libc_nano.a(lib_a-nano-vfprintf_i.o)
                                                  /opt/Atollic_TrueSTUDIO_for_ARM_x86_64_8.0.0/ARMTools/bin/../lib/gcc/arm-atollic-eabi/6.3.1/../../../../arm-atollic-eabi/lib/armv7-ar/thumb/fpu/libc_nano.a(lib_a-nano-svfprintf.o)
_raise_r                                          /opt/Atollic_TrueSTUDIO_for_ARM_x86_64_8.0.0/ARMTools/bin/../lib/gcc/arm-atollic-eabi/6.3.1/../../../../arm-atollic-eabi/lib/armv7-ar/thumb/fpu/libc_nano.a(lib_a-signal.o)
_read                                             libmbed.a(retarget.o)
                                                  /opt/Atollic_TrueSTUDIO_for_ARM_x86_64_8.0.0/ARMTools/bin/../lib/gcc/arm-atollic-eabi/6.3.1/../../../../arm-atollic-eabi/lib/armv7-ar/thumb/fpu/libc_nano.a(lib_a-readr.o)
_read_r                                           /opt/Atollic_TrueSTUDIO_for_ARM_x86_64_8.0.0/ARMTools/bin/../lib/gcc/arm-atollic-eabi/6.3.1/../../../../arm-atollic-eabi/lib/armv7-ar/thumb/fpu/libc_nano.a(lib_a-readr.o)
                                                  /opt/Atollic_TrueSTUDIO_for_ARM_x86_64_8.0.0/ARMTools/bin/../lib/gcc/arm-atollic-eabi/6.3.1/../../../../arm-atollic-eabi/lib/armv7-ar/thumb/fpu/libc_nano.a(lib_a-stdio.o)
_realloc_r                                        /opt/Atollic_TrueSTUDIO_for_ARM_x86_64_8.0.0/ARMTools/bin/../lib/gcc/arm-atollic-eabi/6.3.1/../../../../arm-atollic-eabi/lib/armv7-ar/thumb/fpu/libc_nano.a(lib_a-nano-reallocr.o)
                                                  /opt/Atollic_TrueSTUDIO_for_ARM_x86_64_8.0.0/ARMTools/bin/../lib/gcc/arm-atollic-eabi/6.3.1/../../../../arm-atollic-eabi/lib/armv7-ar/thumb/fpu/libc_nano.a(lib_a-ungetc.o)
                                                  /opt/Atollic_TrueSTUDIO_for_ARM_x86_64_8.0.0/ARMTools/bin/../lib/gcc/arm-atollic-eabi/6.3.1/../../../../arm-atollic-eabi/lib/armv7-ar/thumb/fpu/libc_nano.a(lib_a-nano-svfprintf.o)
_reclaim_reent                                    /opt/Atollic_TrueSTUDIO_for_ARM_x86_64_8.0.0/ARMTools/bin/../lib/gcc/arm-atollic-eabi/6.3.1/../../../../arm-atollic-eabi/lib/armv7-ar/thumb/fpu/libc_nano.a(lib_a-reent.o)
_sbrk                                             libmbed.a(retarget.o)
                                                  /opt/Atollic_TrueSTUDIO_for_ARM_x86_64_8.0.0/ARMTools/bin/../lib/gcc/arm-atollic-eabi/6.3.1/../../../../arm-atollic-eabi/lib/armv7-ar/thumb/fpu/libc_nano.a(lib_a-sbrkr.o)
_sbrk_r                                           /opt/Atollic_TrueSTUDIO_for_ARM_x86_64_8.0.0/ARMTools/bin/../lib/gcc/arm-atollic-eabi/6.3.1/../../../../arm-atollic-eabi/lib/armv7-ar/thumb/fpu/libc_nano.a(lib_a-sbrkr.o)
                                                  /opt/Atollic_TrueSTUDIO_for_ARM_x86_64_8.0.0/ARMTools/bin/../lib/gcc/arm-atollic-eabi/6.3.1/../../../../arm-atollic-eabi/lib/armv7-ar/thumb/fpu/libc_nano.a(lib_a-nano-mallocr.o)
_scanf_chars                                      /opt/Atollic_TrueSTUDIO_for_ARM_x86_64_8.0.0/ARMTools/bin/../lib/gcc/arm-atollic-eabi/6.3.1/../../../../arm-atollic-eabi/lib/armv7-ar/thumb/fpu/libc_nano.a(lib_a-nano-vfscanf_i.o)
                                                  /opt/Atollic_TrueSTUDIO_for_ARM_x86_64_8.0.0/ARMTools/bin/../lib/gcc/arm-atollic-eabi/6.3.1/../../../../arm-atollic-eabi/lib/armv7-ar/thumb/fpu/libc_nano.a(lib_a-nano-svfscanf.o)
_scanf_float                                      /opt/Atollic_TrueSTUDIO_for_ARM_x86_64_8.0.0/ARMTools/bin/../lib/gcc/arm-atollic-eabi/6.3.1/../../../../arm-atollic-eabi/lib/armv7-ar/thumb/fpu/libc_nano.a(lib_a-nano-vfscanf_float.o)
                                                  /opt/Atollic_TrueSTUDIO_for_ARM_x86_64_8.0.0/ARMTools/bin/../lib/gcc/arm-atollic-eabi/6.3.1/../../../../arm-atollic-eabi/lib/armv7-ar/thumb/fpu/libc_nano.a(lib_a-nano-svfscanf.o)
_scanf_i                                          /opt/Atollic_TrueSTUDIO_for_ARM_x86_64_8.0.0/ARMTools/bin/../lib/gcc/arm-atollic-eabi/6.3.1/../../../../arm-atollic-eabi/lib/armv7-ar/thumb/fpu/libc_nano.a(lib_a-nano-vfscanf_i.o)
                                                  /opt/Atollic_TrueSTUDIO_for_ARM_x86_64_8.0.0/ARMTools/bin/../lib/gcc/arm-atollic-eabi/6.3.1/../../../../arm-atollic-eabi/lib/armv7-ar/thumb/fpu/libc_nano.a(lib_a-nano-svfscanf.o)
_setlocale_r                                      /opt/Atollic_TrueSTUDIO_for_ARM_x86_64_8.0.0/ARMTools/bin/../lib/gcc/arm-atollic-eabi/6.3.1/../../../../arm-atollic-eabi/lib/armv7-ar/thumb/fpu/libc_nano.a(lib_a-locale.o)
_signal_r                                         /opt/Atollic_TrueSTUDIO_for_ARM_x86_64_8.0.0/ARMTools/bin/../lib/gcc/arm-atollic-eabi/6.3.1/../../../../arm-atollic-eabi/lib/armv7-ar/thumb/fpu/libc_nano.a(lib_a-signal.o)
_siprintf_r                                       /opt/Atollic_TrueSTUDIO_for_ARM_x86_64_8.0.0/ARMTools/bin/../lib/gcc/arm-atollic-eabi/6.3.1/../../../../arm-atollic-eabi/lib/armv7-ar/thumb/fpu/libc_nano.a(lib_a-sprintf.o)
_siscanf_r                                        /opt/Atollic_TrueSTUDIO_for_ARM_x86_64_8.0.0/ARMTools/bin/../lib/gcc/arm-atollic-eabi/6.3.1/../../../../arm-atollic-eabi/lib/armv7-ar/thumb/fpu/libc_nano.a(lib_a-sscanf.o)
_sprintf_r                                        /opt/Atollic_TrueSTUDIO_for_ARM_x86_64_8.0.0/ARMTools/bin/../lib/gcc/arm-atollic-eabi/6.3.1/../../../../arm-atollic-eabi/lib/armv7-ar/thumb/fpu/libc_nano.a(lib_a-sprintf.o)
_sscanf_r                                         /opt/Atollic_TrueSTUDIO_for_ARM_x86_64_8.0.0/ARMTools/bin/../lib/gcc/arm-atollic-eabi/6.3.1/../../../../arm-atollic-eabi/lib/armv7-ar/thumb/fpu/libc_nano.a(lib_a-sscanf.o)
_strtod_l                                         /opt/Atollic_TrueSTUDIO_for_ARM_x86_64_8.0.0/ARMTools/bin/../lib/gcc/arm-atollic-eabi/6.3.1/../../../../arm-atollic-eabi/lib/armv7-ar/thumb/fpu/libc_nano.a(lib_a-strtod.o)
_strtod_r                                         /opt/Atollic_TrueSTUDIO_for_ARM_x86_64_8.0.0/ARMTools/bin/../lib/gcc/arm-atollic-eabi/6.3.1/../../../../arm-atollic-eabi/lib/armv7-ar/thumb/fpu/libc_nano.a(lib_a-strtod.o)
                                                  /opt/Atollic_TrueSTUDIO_for_ARM_x86_64_8.0.0/ARMTools/bin/../lib/gcc/arm-atollic-eabi/6.3.1/../../../../arm-atollic-eabi/lib/armv7-ar/thumb/fpu/libc_nano.a(lib_a-nano-vfscanf_float.o)
_strtol_r                                         /opt/Atollic_TrueSTUDIO_for_ARM_x86_64_8.0.0/ARMTools/bin/../lib/gcc/arm-atollic-eabi/6.3.1/../../../../arm-atollic-eabi/lib/armv7-ar/thumb/fpu/libc_nano.a(lib_a-strtol.o)
                                                  /opt/Atollic_TrueSTUDIO_for_ARM_x86_64_8.0.0/ARMTools/bin/../lib/gcc/arm-atollic-eabi/6.3.1/../../../../arm-atollic-eabi/lib/armv7-ar/thumb/fpu/libc_nano.a(lib_a-nano-vfscanf_i.o)
                                                  /opt/Atollic_TrueSTUDIO_for_ARM_x86_64_8.0.0/ARMTools/bin/../lib/gcc/arm-atollic-eabi/6.3.1/../../../../arm-atollic-eabi/lib/armv7-ar/thumb/fpu/libc_nano.a(lib_a-nano-vfscanf_float.o)
_strtoul_r                                        /opt/Atollic_TrueSTUDIO_for_ARM_x86_64_8.0.0/ARMTools/bin/../lib/gcc/arm-atollic-eabi/6.3.1/../../../../arm-atollic-eabi/lib/armv7-ar/thumb/fpu/libc_nano.a(lib_a-strtoul.o)
                                                  /opt/Atollic_TrueSTUDIO_for_ARM_x86_64_8.0.0/ARMTools/bin/../lib/gcc/arm-atollic-eabi/6.3.1/../../../../arm-atollic-eabi/lib/armv7-ar/thumb/fpu/libc_nano.a(lib_a-nano-vfscanf_i.o)
_sungetc_r                                        /opt/Atollic_TrueSTUDIO_for_ARM_x86_64_8.0.0/ARMTools/bin/../lib/gcc/arm-atollic-eabi/6.3.1/../../../../arm-atollic-eabi/lib/armv7-ar/thumb/fpu/libc_nano.a(lib_a-nano-svfscanf.o)
_svfiprintf_r                                     /opt/Atollic_TrueSTUDIO_for_ARM_x86_64_8.0.0/ARMTools/bin/../lib/gcc/arm-atollic-eabi/6.3.1/../../../../arm-atollic-eabi/lib/armv7-ar/thumb/fpu/libc_nano.a(lib_a-nano-svfprintf.o)
_svfprintf_r                                      /opt/Atollic_TrueSTUDIO_for_ARM_x86_64_8.0.0/ARMTools/bin/../lib/gcc/arm-atollic-eabi/6.3.1/../../../../arm-atollic-eabi/lib/armv7-ar/thumb/fpu/libc_nano.a(lib_a-nano-svfprintf.o)
                                                  /opt/Atollic_TrueSTUDIO_for_ARM_x86_64_8.0.0/ARMTools/bin/../lib/gcc/arm-atollic-eabi/6.3.1/../../../../arm-atollic-eabi/lib/armv7-ar/thumb/fpu/libc_nano.a(lib_a-sprintf.o)
_ungetc_r                                         /opt/Atollic_TrueSTUDIO_for_ARM_x86_64_8.0.0/ARMTools/bin/../lib/gcc/arm-atollic-eabi/6.3.1/../../../../arm-atollic-eabi/lib/armv7-ar/thumb/fpu/libc_nano.a(lib_a-ungetc.o)
_wctomb_r                                         /opt/Atollic_TrueSTUDIO_for_ARM_x86_64_8.0.0/ARMTools/bin/../lib/gcc/arm-atollic-eabi/6.3.1/../../../../arm-atollic-eabi/lib/armv7-ar/thumb/fpu/libc_nano.a(lib_a-wctomb_r.o)
_write                                            libmbed.a(retarget.o)
                                                  /opt/Atollic_TrueSTUDIO_for_ARM_x86_64_8.0.0/ARMTools/bin/../lib/gcc/arm-atollic-eabi/6.3.1/../../../../arm-atollic-eabi/lib/armv7-ar/thumb/fpu/libc_nano.a(lib_a-writer.o)
_write_r                                          /opt/Atollic_TrueSTUDIO_for_ARM_x86_64_8.0.0/ARMTools/bin/../lib/gcc/arm-atollic-eabi/6.3.1/../../../../arm-atollic-eabi/lib/armv7-ar/thumb/fpu/libc_nano.a(lib_a-writer.o)
                                                  /opt/Atollic_TrueSTUDIO_for_ARM_x86_64_8.0.0/ARMTools/bin/../lib/gcc/arm-atollic-eabi/6.3.1/../../../../arm-atollic-eabi/lib/armv7-ar/thumb/fpu/libc_nano.a(lib_a-stdio.o)
abort                                             /opt/Atollic_TrueSTUDIO_for_ARM_x86_64_8.0.0/ARMTools/bin/../lib/gcc/arm-atollic-eabi/6.3.1/../../../../arm-atollic-eabi/lib/armv7-ar/thumb/fpu/libc_nano.a(lib_a-abort.o)
                                                  /opt/Atollic_TrueSTUDIO_for_ARM_x86_64_8.0.0/ARMTools/bin/../lib/gcc/arm-atollic-eabi/6.3.1/../../../../arm-atollic-eabi/lib/armv7-ar/thumb/fpu/libstdc++_nano.a(new_op.o)
arm_disable_dcache                                ./libkernel.a(arm.o)
                                                  ./libkernel.a(chip_kernel_impl.o)
arm_disable_icache                                ./libkernel.a(arm.o)
                                                  ./libkernel.a(chip_kernel_impl.o)
arm_enable_dcache                                 ./libkernel.a(arm.o)
                                                  ./libkernel.a(chip_kernel_impl.o)
arm_enable_icache                                 ./libkernel.a(arm.o)
                                                  ./libkernel.a(chip_kernel_impl.o)
armv7_clean_and_invalidate_dcache                 ./libkernel.a(arm.o)
armv7_invalidate_dcache                           ./libkernel.a(arm.o)
blinky_main_task                                  blinky.o
                                                  kernel_cfg.o
boot_loader                                       sf_boot.o
                                                  libmbed.a(startup_RZ1AH.o)
can_wup                                           ./libkernel.a(task_sync.o)
chg_ipm                                           ./libkernel.a(interrupt.o)
cleanup_glue                                      /opt/Atollic_TrueSTUDIO_for_ARM_x86_64_8.0.0/ARMTools/bin/../lib/gcc/arm-atollic-eabi/6.3.1/../../../../arm-atollic-eabi/lib/armv7-ar/thumb/fpu/libc_nano.a(lib_a-reent.o)
closedir                                          libmbed.a(retarget.o)
clr_int                                           ./libkernel.a(interrupt.o)
create_translation_table                          libmbed.a(mmu_Renesas_RZ_A1.o)
                                                  libmbed.a(startup_RZ1AH.o)
dis_dsp                                           ./libkernel.a(sys_manage.o)
                                                  tSerialPortMain.o
dis_int                                           ./libkernel.a(interrupt.o)
                                                  tSerialPortMain.o
dis_ter                                           ./libkernel.a(task_term.o)
dly_tsk                                           ./libkernel.a(task_sync.o)
                                                  tLogTaskMain.o
ena_dsp                                           ./libkernel.a(sys_manage.o)
                                                  tSerialPortMain.o
ena_int                                           ./libkernel.a(interrupt.o)
                                                  tPutLogGRPeach.o
                                                  tSerialPortMain.o
ena_ter                                           ./libkernel.a(task_term.o)
errno                                             /opt/Atollic_TrueSTUDIO_for_ARM_x86_64_8.0.0/ARMTools/bin/../lib/gcc/arm-atollic-eabi/6.3.1/../../../../arm-atollic-eabi/lib/armv7-ar/thumb/fpu/libc_nano.a(lib_a-reent.o)
                                                  /opt/Atollic_TrueSTUDIO_for_ARM_x86_64_8.0.0/ARMTools/bin/../lib/gcc/arm-atollic-eabi/6.3.1/../../../../arm-atollic-eabi/lib/armv7-ar/thumb/fpu/libnosys.a(kill.o)
                                                  /opt/Atollic_TrueSTUDIO_for_ARM_x86_64_8.0.0/ARMTools/bin/../lib/gcc/arm-atollic-eabi/6.3.1/../../../../arm-atollic-eabi/lib/armv7-ar/thumb/fpu/libnosys.a(getpid.o)
                                                  /opt/Atollic_TrueSTUDIO_for_ARM_x86_64_8.0.0/ARMTools/bin/../lib/gcc/arm-atollic-eabi/6.3.1/../../../../arm-atollic-eabi/lib/armv7-ar/thumb/fpu/libc_nano.a(lib_a-isattyr.o)
                                                  /opt/Atollic_TrueSTUDIO_for_ARM_x86_64_8.0.0/ARMTools/bin/../lib/gcc/arm-atollic-eabi/6.3.1/../../../../arm-atollic-eabi/lib/armv7-ar/thumb/fpu/libc_nano.a(lib_a-fstatr.o)
                                                  /opt/Atollic_TrueSTUDIO_for_ARM_x86_64_8.0.0/ARMTools/bin/../lib/gcc/arm-atollic-eabi/6.3.1/../../../../arm-atollic-eabi/lib/armv7-ar/thumb/fpu/libc_nano.a(lib_a-readr.o)
                                                  /opt/Atollic_TrueSTUDIO_for_ARM_x86_64_8.0.0/ARMTools/bin/../lib/gcc/arm-atollic-eabi/6.3.1/../../../../arm-atollic-eabi/lib/armv7-ar/thumb/fpu/libc_nano.a(lib_a-lseekr.o)
                                                  /opt/Atollic_TrueSTUDIO_for_ARM_x86_64_8.0.0/ARMTools/bin/../lib/gcc/arm-atollic-eabi/6.3.1/../../../../arm-atollic-eabi/lib/armv7-ar/thumb/fpu/libc_nano.a(lib_a-closer.o)
                                                  /opt/Atollic_TrueSTUDIO_for_ARM_x86_64_8.0.0/ARMTools/bin/../lib/gcc/arm-atollic-eabi/6.3.1/../../../../arm-atollic-eabi/lib/armv7-ar/thumb/fpu/libc_nano.a(lib_a-writer.o)
                                                  /opt/Atollic_TrueSTUDIO_for_ARM_x86_64_8.0.0/ARMTools/bin/../lib/gcc/arm-atollic-eabi/6.3.1/../../../../arm-atollic-eabi/lib/armv7-ar/thumb/fpu/libc_nano.a(lib_a-signalr.o)
                                                  /opt/Atollic_TrueSTUDIO_for_ARM_x86_64_8.0.0/ARMTools/bin/../lib/gcc/arm-atollic-eabi/6.3.1/../../../../arm-atollic-eabi/lib/armv7-ar/thumb/fpu/libc_nano.a(lib_a-sbrkr.o)
                                                  libmbed.a(retarget.o)
error                                             libmbed.a(error.o)
                                                  libmbed.a(pinmap_common.o)
                                                  libmbed.a(assert.o)
                                                  libmbed.a(retarget.o)
exit                                              /opt/Atollic_TrueSTUDIO_for_ARM_x86_64_8.0.0/ARMTools/bin/../lib/gcc/arm-atollic-eabi/6.3.1/../../../../arm-atollic-eabi/lib/armv7-ar/thumb/fpu/libc_nano.a(lib_a-exit.o)
                                                  libmbed.a(error.o)
                                                  libmbed.a(retarget.o)
ext_ker                                           ./libkernel.a(startup.o)
                                                  ./libkernel.a(core_kernel_impl.o)
ext_tsk                                           ./libkernel.a(task_term.o)
                                                  ./libkernel.a(core_support.o)
fflush                                            /opt/Atollic_TrueSTUDIO_for_ARM_x86_64_8.0.0/ARMTools/bin/../lib/gcc/arm-atollic-eabi/6.3.1/../../../../arm-atollic-eabi/lib/armv7-ar/thumb/fpu/libc_nano.a(lib_a-fflush.o)
                                                  /opt/Atollic_TrueSTUDIO_for_ARM_x86_64_8.0.0/ARMTools/bin/../lib/gcc/arm-atollic-eabi/6.3.1/../../../../arm-atollic-eabi/lib/armv7-ar/thumb/fpu/libc_nano.a(lib_a-refill.o)
fgetc                                             /opt/Atollic_TrueSTUDIO_for_ARM_x86_64_8.0.0/ARMTools/bin/../lib/gcc/arm-atollic-eabi/6.3.1/../../../../arm-atollic-eabi/lib/armv7-ar/thumb/fpu/libc_nano.a(lib_a-fgetc.o)
                                                  libmbed.a(retarget.o)
fgets                                             /opt/Atollic_TrueSTUDIO_for_ARM_x86_64_8.0.0/ARMTools/bin/../lib/gcc/arm-atollic-eabi/6.3.1/../../../../arm-atollic-eabi/lib/armv7-ar/thumb/fpu/libc_nano.a(lib_a-fgets.o)
                                                  libmbed.a(retarget.o)
flip()                                            blinky.o
free                                              /opt/Atollic_TrueSTUDIO_for_ARM_x86_64_8.0.0/ARMTools/bin/../lib/gcc/arm-atollic-eabi/6.3.1/../../../../arm-atollic-eabi/lib/armv7-ar/thumb/fpu/libc_nano.a(lib_a-malloc.o)
                                                  /opt/Atollic_TrueSTUDIO_for_ARM_x86_64_8.0.0/ARMTools/bin/../lib/gcc/arm-atollic-eabi/6.3.1/../../../../arm-atollic-eabi/lib/armv7-ar/thumb/fpu/libstdc++_nano.a(del_op.o)
get_ipm                                           ./libkernel.a(interrupt.o)
get_lod                                           ./libkernel.a(sys_manage.o)
get_nth                                           ./libkernel.a(sys_manage.o)
get_tid                                           ./libkernel.a(sys_manage.o)
get_us_ticker_data                                libmbed.a(us_ticker_api.o)
                                                  libmbed.a(TimerEvent.o)
gpio_dir                                          libmbed.a(gpio_api.o)
                                                  libmbed.a(gpio.o)
gpio_init                                         libmbed.a(gpio_api.o)
                                                  libmbed.a(gpio.o)
gpio_init_in                                      libmbed.a(gpio.o)
gpio_init_in_ex                                   libmbed.a(gpio.o)
gpio_init_inout                                   libmbed.a(gpio.o)
gpio_init_out                                     libmbed.a(gpio.o)
                                                  libmbed.a(SoftPWM.o)
                                                  blinky.o
gpio_init_out_ex                                  libmbed.a(gpio.o)
gpio_mode                                         libmbed.a(gpio_api.o)
                                                  libmbed.a(gpio.o)
gpio_multi_guard                                  libmbed.a(pinmap.o)
gpio_set                                          libmbed.a(gpio_api.o)
gr_peach_set_led                                  ./libkernel.a(target_kernel_impl.o)
                                                  libmbed.a(system_MBRZA1H.o)
hardware_init_hook                                ./libkernel.a(target_support.o)
                                                  start.o
ini_sem                                           ./libkernel.a(semaphore.o)
                                                  tSerialPortMain.o
init_main_task                                    libmbed.a(common.o)
                                                  kernel_cfg.o
initialize_tecs                                   init_tecs.o
                                                  ./libkernel.a(startup.o)
itron_strerror                                    strerror.o
                                                  t_perror.o
loc_cpu                                           ./libkernel.a(sys_manage.o)
                                                  tSerialPortMain.o
localeconv                                        /opt/Atollic_TrueSTUDIO_for_ARM_x86_64_8.0.0/ARMTools/bin/../lib/gcc/arm-atollic-eabi/6.3.1/../../../../arm-atollic-eabi/lib/armv7-ar/thumb/fpu/libc_nano.a(lib_a-localeconv.o)
malloc                                            /opt/Atollic_TrueSTUDIO_for_ARM_x86_64_8.0.0/ARMTools/bin/../lib/gcc/arm-atollic-eabi/6.3.1/../../../../arm-atollic-eabi/lib/armv7-ar/thumb/fpu/libc_nano.a(lib_a-malloc.o)
                                                  /opt/Atollic_TrueSTUDIO_for_ARM_x86_64_8.0.0/ARMTools/bin/../lib/gcc/arm-atollic-eabi/6.3.1/../../../../arm-atollic-eabi/lib/armv7-ar/thumb/fpu/libc_nano.a(lib_a-mprec.o)
                                                  /opt/Atollic_TrueSTUDIO_for_ARM_x86_64_8.0.0/ARMTools/bin/../lib/gcc/arm-atollic-eabi/6.3.1/../../../../arm-atollic-eabi/lib/armv7-ar/thumb/fpu/libc_nano.a(lib_a-dtoa.o)
                                                  /opt/Atollic_TrueSTUDIO_for_ARM_x86_64_8.0.0/ARMTools/bin/../lib/gcc/arm-atollic-eabi/6.3.1/../../../../arm-atollic-eabi/lib/armv7-ar/thumb/fpu/libc_nano.a(lib_a-setvbuf.o)
                                                  /opt/Atollic_TrueSTUDIO_for_ARM_x86_64_8.0.0/ARMTools/bin/../lib/gcc/arm-atollic-eabi/6.3.1/../../../../arm-atollic-eabi/lib/armv7-ar/thumb/fpu/libstdc++_nano.a(new_op.o)
mbed::BaseDirHandle::BaseDirHandle()              libmbed.a(FileSystemLike.o)
mbed::BaseDirHandle::BaseDirHandle()              libmbed.a(FileSystemLike.o)
mbed::BaseDirHandle::closedir()                   libmbed.a(FileSystemLike.o)
mbed::BaseDirHandle::readdir()                    libmbed.a(FileSystemLike.o)
mbed::BaseDirHandle::rewinddir()                  libmbed.a(FileSystemLike.o)
mbed::BaseDirHandle::seekdir(long)                libmbed.a(FileSystemLike.o)
mbed::BaseDirHandle::telldir()                    libmbed.a(FileSystemLike.o)
mbed::BaseDirHandle::~BaseDirHandle()             libmbed.a(FileSystemLike.o)
mbed::BaseDirHandle::~BaseDirHandle()             libmbed.a(FileSystemLike.o)
mbed::BaseDirHandle::~BaseDirHandle()             libmbed.a(FileSystemLike.o)
mbed::DigitalOut::DigitalOut(PinName)             blinky.o
                                                  libmbed.a(SoftPWM.o)
mbed::DigitalOut::DigitalOut(PinName)             blinky.o
                                                  libmbed.a(SoftPWM.o)
mbed::DigitalOut::operator int()                  blinky.o
mbed::DigitalOut::operator=(int)                  blinky.o
                                                  libmbed.a(SoftPWM.o)
mbed::DigitalOut::read()                          blinky.o
mbed::DigitalOut::write(int)                      blinky.o
                                                  libmbed.a(SoftPWM.o)
mbed::DirHandle::DirHandle()                      libmbed.a(FileSystemLike.o)
mbed::DirHandle::DirHandle()                      libmbed.a(FileSystemLike.o)
mbed::DirHandle::seekdir(long)                    libmbed.a(FileSystemLike.o)
mbed::DirHandle::telldir()                        libmbed.a(FileSystemLike.o)
mbed::DirHandle::~DirHandle()                     libmbed.a(FileSystemLike.o)
mbed::DirHandle::~DirHandle()                     libmbed.a(FileSystemLike.o)
mbed::DirHandle::~DirHandle()                     libmbed.a(FileSystemLike.o)
mbed::FileBase::FileBase(char const*, mbed::PathType) libmbed.a(FileBase.o)
                                                  libmbed.a(FileSystemLike.o)
mbed::FileBase::FileBase(char const*, mbed::PathType) libmbed.a(FileBase.o)
mbed::FileBase::_head                             libmbed.a(FileBase.o)
mbed::FileBase::get(int)                          libmbed.a(FileBase.o)
                                                  libmbed.a(FileSystemLike.o)
mbed::FileBase::getName()                         libmbed.a(FileBase.o)
                                                  libmbed.a(FileSystemLike.o)
mbed::FileBase::getPathType()                     libmbed.a(FileBase.o)
                                                  libmbed.a(FilePath.o)
mbed::FileBase::lookup(char const*, unsigned int) libmbed.a(FileBase.o)
                                                  libmbed.a(FilePath.o)
mbed::FileBase::~FileBase()                       libmbed.a(FileBase.o)
mbed::FileBase::~FileBase()                       libmbed.a(FileBase.o)
                                                  libmbed.a(FileSystemLike.o)
mbed::FileBase::~FileBase()                       libmbed.a(FileBase.o)
mbed::FileHandle::flen()                          libmbed.a(retarget.o)
mbed::FileHandle::~FileHandle()                   libmbed.a(retarget.o)
mbed::FileHandle::~FileHandle()                   libmbed.a(retarget.o)
mbed::FileHandle::~FileHandle()                   libmbed.a(retarget.o)
mbed::FilePath::FilePath(char const*)             libmbed.a(FilePath.o)
mbed::FilePath::FilePath(char const*)             libmbed.a(FilePath.o)
                                                  libmbed.a(retarget.o)
mbed::FilePath::exists()                          libmbed.a(FilePath.o)
                                                  libmbed.a(retarget.o)
mbed::FilePath::file()                            libmbed.a(FilePath.o)
                                                  libmbed.a(retarget.o)
mbed::FilePath::fileName()                        libmbed.a(FilePath.o)
                                                  libmbed.a(retarget.o)
mbed::FilePath::fileSystem()                      libmbed.a(FilePath.o)
                                                  libmbed.a(retarget.o)
mbed::FilePath::isFile()                          libmbed.a(FilePath.o)
                                                  libmbed.a(retarget.o)
mbed::FilePath::isFileSystem()                    libmbed.a(FilePath.o)
mbed::FileSystemLike::FileSystemLike(char const*) libmbed.a(FileSystemLike.o)
mbed::FileSystemLike::FileSystemLike(char const*) libmbed.a(FileSystemLike.o)
mbed::FileSystemLike::mkdir(char const*, unsigned long) libmbed.a(FileSystemLike.o)
mbed::FileSystemLike::opendir()                   libmbed.a(FileSystemLike.o)
                                                  libmbed.a(retarget.o)
mbed::FileSystemLike::opendir(char const*)        libmbed.a(FileSystemLike.o)
mbed::FileSystemLike::remove(char const*)         libmbed.a(FileSystemLike.o)
mbed::FileSystemLike::rename(char const*, char const*) libmbed.a(FileSystemLike.o)
mbed::FileSystemLike::~FileSystemLike()           libmbed.a(FileSystemLike.o)
mbed::FileSystemLike::~FileSystemLike()           libmbed.a(FileSystemLike.o)
mbed::FileSystemLike::~FileSystemLike()           libmbed.a(FileSystemLike.o)
mbed::FunctionPointerArg1<void, void>::FunctionPointerArg1(void (*)()) blinky.o
                                                  libmbed.a(SoftPWM.o)
mbed::FunctionPointerArg1<void, void>::FunctionPointerArg1(void (*)()) blinky.o
                                                  libmbed.a(SoftPWM.o)
mbed::FunctionPointerArg1<void, void>::attach(void (*)()) blinky.o
                                                  libmbed.a(SoftPWM.o)
                                                  libmbed.a(Ticker.o)
mbed::FunctionPointerArg1<void, void>::call()     libmbed.a(Timeout.o)
                                                  libmbed.a(Ticker.o)
mbed::Ticker::Ticker()                            blinky.o
                                                  libmbed.a(SoftPWM.o)
mbed::Ticker::Ticker()                            blinky.o
                                                  libmbed.a(SoftPWM.o)
mbed::Ticker::attach_us(void (*)(), unsigned long) blinky.o
mbed::Ticker::detach()                            libmbed.a(Ticker.o)
                                                  libmbed.a(SoftPWM.o)
                                                  libmbed.a(Timeout.o)
                                                  blinky.o
mbed::Ticker::handler()                           libmbed.a(Ticker.o)
mbed::Ticker::setup(unsigned long)                libmbed.a(Ticker.o)
                                                  libmbed.a(SoftPWM.o)
                                                  blinky.o
mbed::Ticker::~Ticker()                           blinky.o
                                                  libmbed.a(Ticker.o)
                                                  libmbed.a(Timeout.o)
mbed::Ticker::~Ticker()                           blinky.o
                                                  libmbed.a(Ticker.o)
                                                  libmbed.a(Timeout.o)
mbed::Ticker::~Ticker()                           blinky.o
                                                  libmbed.a(Ticker.o)
                                                  libmbed.a(Timeout.o)
mbed::Timeout::Timeout()                          libmbed.a(SoftPWM.o)
mbed::Timeout::Timeout()                          libmbed.a(SoftPWM.o)
mbed::Timeout::handler()                          libmbed.a(Timeout.o)
mbed::Timeout::~Timeout()                         blinky.o
                                                  libmbed.a(Timeout.o)
mbed::Timeout::~Timeout()                         blinky.o
                                                  libmbed.a(Timeout.o)
mbed::Timeout::~Timeout()                         blinky.o
                                                  libmbed.a(Timeout.o)
mbed::TimerEvent::TimerEvent()                    libmbed.a(TimerEvent.o)
mbed::TimerEvent::TimerEvent()                    libmbed.a(TimerEvent.o)
                                                  libmbed.a(SoftPWM.o)
                                                  blinky.o
mbed::TimerEvent::TimerEvent(ticker_data_t const*) libmbed.a(TimerEvent.o)
mbed::TimerEvent::TimerEvent(ticker_data_t const*) libmbed.a(TimerEvent.o)
mbed::TimerEvent::insert(unsigned long)           libmbed.a(TimerEvent.o)
                                                  libmbed.a(Ticker.o)
mbed::TimerEvent::irq(unsigned long)              libmbed.a(TimerEvent.o)
mbed::TimerEvent::remove()                        libmbed.a(TimerEvent.o)
                                                  libmbed.a(Ticker.o)
mbed::TimerEvent::~TimerEvent()                   libmbed.a(TimerEvent.o)
mbed::TimerEvent::~TimerEvent()                   libmbed.a(TimerEvent.o)
mbed::TimerEvent::~TimerEvent()                   libmbed.a(TimerEvent.o)
                                                  libmbed.a(Ticker.o)
                                                  libmbed.a(Timeout.o)
                                                  blinky.o
mbed::mbed_getc(__sFILE*)                         libmbed.a(retarget.o)
mbed::mbed_gets(char*, int, __sFILE*)             libmbed.a(retarget.o)
mbed::mbed_set_unbuffered_stream(__sFILE*)        libmbed.a(retarget.o)
mbed_assert_internal                              libmbed.a(assert.o)
                                                  libmbed.a(serial_api.o)
mbed_die                                          libmbed.a(board.o)
                                                  libmbed.a(retarget.o)
mbed_main                                         libmbed.a(retarget.o)
mbed_sdk_init                                     libmbed.a(retarget.o)
memchr                                            /opt/Atollic_TrueSTUDIO_for_ARM_x86_64_8.0.0/ARMTools/bin/../lib/gcc/arm-atollic-eabi/6.3.1/../../../../arm-atollic-eabi/lib/armv7-ar/thumb/fpu/libc_nano.a(lib_a-memchr-stub.o)
                                                  /opt/Atollic_TrueSTUDIO_for_ARM_x86_64_8.0.0/ARMTools/bin/../lib/gcc/arm-atollic-eabi/6.3.1/../../../../arm-atollic-eabi/lib/armv7-ar/thumb/fpu/libc_nano.a(lib_a-nano-vfscanf_i.o)
                                                  /opt/Atollic_TrueSTUDIO_for_ARM_x86_64_8.0.0/ARMTools/bin/../lib/gcc/arm-atollic-eabi/6.3.1/../../../../arm-atollic-eabi/lib/armv7-ar/thumb/fpu/libc_nano.a(lib_a-nano-svfscanf.o)
                                                  /opt/Atollic_TrueSTUDIO_for_ARM_x86_64_8.0.0/ARMTools/bin/../lib/gcc/arm-atollic-eabi/6.3.1/../../../../arm-atollic-eabi/lib/armv7-ar/thumb/fpu/libc_nano.a(lib_a-nano-svfprintf.o)
                                                  /opt/Atollic_TrueSTUDIO_for_ARM_x86_64_8.0.0/ARMTools/bin/../lib/gcc/arm-atollic-eabi/6.3.1/../../../../arm-atollic-eabi/lib/armv7-ar/thumb/fpu/libc_nano.a(lib_a-nano-vfprintf_i.o)
                                                  /opt/Atollic_TrueSTUDIO_for_ARM_x86_64_8.0.0/ARMTools/bin/../lib/gcc/arm-atollic-eabi/6.3.1/../../../../arm-atollic-eabi/lib/armv7-ar/thumb/fpu/libc_nano.a(lib_a-fgets.o)
memcpy                                            /opt/Atollic_TrueSTUDIO_for_ARM_x86_64_8.0.0/ARMTools/bin/../lib/gcc/arm-atollic-eabi/6.3.1/../../../../arm-atollic-eabi/lib/armv7-ar/thumb/fpu/libc_nano.a(lib_a-memcpy-stub.o)
                                                  /opt/Atollic_TrueSTUDIO_for_ARM_x86_64_8.0.0/ARMTools/bin/../lib/gcc/arm-atollic-eabi/6.3.1/../../../../arm-atollic-eabi/lib/armv7-ar/thumb/fpu/libc_nano.a(lib_a-nano-reallocr.o)
                                                  /opt/Atollic_TrueSTUDIO_for_ARM_x86_64_8.0.0/ARMTools/bin/../lib/gcc/arm-atollic-eabi/6.3.1/../../../../arm-atollic-eabi/lib/armv7-ar/thumb/fpu/libc_nano.a(lib_a-ungetc.o)
                                                  /opt/Atollic_TrueSTUDIO_for_ARM_x86_64_8.0.0/ARMTools/bin/../lib/gcc/arm-atollic-eabi/6.3.1/../../../../arm-atollic-eabi/lib/armv7-ar/thumb/fpu/libc_nano.a(lib_a-nano-svfprintf.o)
                                                  /opt/Atollic_TrueSTUDIO_for_ARM_x86_64_8.0.0/ARMTools/bin/../lib/gcc/arm-atollic-eabi/6.3.1/../../../../arm-atollic-eabi/lib/armv7-ar/thumb/fpu/libc_nano.a(lib_a-mprec.o)
                                                  /opt/Atollic_TrueSTUDIO_for_ARM_x86_64_8.0.0/ARMTools/bin/../lib/gcc/arm-atollic-eabi/6.3.1/../../../../arm-atollic-eabi/lib/armv7-ar/thumb/fpu/libc_nano.a(lib_a-gdtoa-gethex.o)
                                                  /opt/Atollic_TrueSTUDIO_for_ARM_x86_64_8.0.0/ARMTools/bin/../lib/gcc/arm-atollic-eabi/6.3.1/../../../../arm-atollic-eabi/lib/armv7-ar/thumb/fpu/libc_nano.a(lib_a-dtoa.o)
                                                  /opt/Atollic_TrueSTUDIO_for_ARM_x86_64_8.0.0/ARMTools/bin/../lib/gcc/arm-atollic-eabi/6.3.1/../../../../arm-atollic-eabi/lib/armv7-ar/thumb/fpu/libc_nano.a(lib_a-strtod.o)
                                                  /opt/Atollic_TrueSTUDIO_for_ARM_x86_64_8.0.0/ARMTools/bin/../lib/gcc/arm-atollic-eabi/6.3.1/../../../../arm-atollic-eabi/lib/armv7-ar/thumb/fpu/libc_nano.a(lib_a-fgets.o)
                                                  libmbed.a(serial_api.o)
memmove                                           /opt/Atollic_TrueSTUDIO_for_ARM_x86_64_8.0.0/ARMTools/bin/../lib/gcc/arm-atollic-eabi/6.3.1/../../../../arm-atollic-eabi/lib/armv7-ar/thumb/fpu/libc_nano.a(lib_a-memmove.o)
                                                  /opt/Atollic_TrueSTUDIO_for_ARM_x86_64_8.0.0/ARMTools/bin/../lib/gcc/arm-atollic-eabi/6.3.1/../../../../arm-atollic-eabi/lib/armv7-ar/thumb/fpu/libc_nano.a(lib_a-nano-svfprintf.o)
memset                                            /opt/Atollic_TrueSTUDIO_for_ARM_x86_64_8.0.0/ARMTools/bin/../lib/gcc/arm-atollic-eabi/6.3.1/../../../../arm-atollic-eabi/lib/armv7-ar/thumb/fpu/libc_nano.a(lib_a-memset.o)
                                                  /opt/Atollic_TrueSTUDIO_for_ARM_x86_64_8.0.0/ARMTools/bin/../lib/gcc/arm-atollic-eabi/6.3.1/../../../../arm-atollic-eabi/lib/armv7-ar/thumb/fpu/libc_nano.a(lib_a-nano-callocr.o)
                                                  /opt/Atollic_TrueSTUDIO_for_ARM_x86_64_8.0.0/ARMTools/bin/../lib/gcc/arm-atollic-eabi/6.3.1/../../../../arm-atollic-eabi/lib/armv7-ar/thumb/fpu/libc_nano.a(lib_a-findfp.o)
                                                  libmbed.a(FileSystemLike.o)
mkdir                                             libmbed.a(retarget.o)
nanf                                              /opt/Atollic_TrueSTUDIO_for_ARM_x86_64_8.0.0/ARMTools/bin/../lib/gcc/arm-atollic-eabi/6.3.1/../../../../arm-atollic-eabi/lib/armv7-ar/thumb/fpu/libc_nano.a(lib_a-sf_nan.o)
                                                  /opt/Atollic_TrueSTUDIO_for_ARM_x86_64_8.0.0/ARMTools/bin/../lib/gcc/arm-atollic-eabi/6.3.1/../../../../arm-atollic-eabi/lib/armv7-ar/thumb/fpu/libc_nano.a(lib_a-strtod.o)
                                                  /opt/Atollic_TrueSTUDIO_for_ARM_x86_64_8.0.0/ARMTools/bin/../lib/gcc/arm-atollic-eabi/6.3.1/../../../../arm-atollic-eabi/lib/armv7-ar/thumb/fpu/libc_nano.a(lib_a-nano-vfscanf_float.o)
opendir                                           libmbed.a(retarget.o)
operator delete(void*)                            /opt/Atollic_TrueSTUDIO_for_ARM_x86_64_8.0.0/ARMTools/bin/../lib/gcc/arm-atollic-eabi/6.3.1/../../../../arm-atollic-eabi/lib/armv7-ar/thumb/fpu/libstdc++_nano.a(del_op.o)
                                                  libmbed.a(FileBase.o)
                                                  libmbed.a(FileSystemLike.o)
                                                  libmbed.a(Ticker.o)
                                                  libmbed.a(retarget.o)
                                                  libmbed.a(TimerEvent.o)
                                                  libmbed.a(Timeout.o)
                                                  blinky.o
operator new(unsigned int)                        /opt/Atollic_TrueSTUDIO_for_ARM_x86_64_8.0.0/ARMTools/bin/../lib/gcc/arm-atollic-eabi/6.3.1/../../../../arm-atollic-eabi/lib/armv7-ar/thumb/fpu/libstdc++_nano.a(new_op.o)
                                                  libmbed.a(FileSystemLike.o)
pin_function                                      libmbed.a(pinmap.o)
                                                  libmbed.a(pinmap_common.o)
                                                  libmbed.a(gpio_api.o)
pin_mode                                          libmbed.a(pinmap.o)
                                                  libmbed.a(pinmap_common.o)
pinmap_find_function                              libmbed.a(pinmap_common.o)
pinmap_find_peripheral                            libmbed.a(pinmap_common.o)
pinmap_function                                   libmbed.a(pinmap_common.o)
pinmap_merge                                      libmbed.a(pinmap_common.o)
                                                  libmbed.a(serial_api.o)
pinmap_peripheral                                 libmbed.a(pinmap_common.o)
                                                  libmbed.a(serial_api.o)
pinmap_pinout                                     libmbed.a(pinmap_common.o)
                                                  libmbed.a(serial_api.o)
pol_sem                                           ./libkernel.a(semaphore.o)
prb_int                                           ./libkernel.a(interrupt.o)
raise                                             /opt/Atollic_TrueSTUDIO_for_ARM_x86_64_8.0.0/ARMTools/bin/../lib/gcc/arm-atollic-eabi/6.3.1/../../../../arm-atollic-eabi/lib/armv7-ar/thumb/fpu/libc_nano.a(lib_a-signal.o)
                                                  /opt/Atollic_TrueSTUDIO_for_ARM_x86_64_8.0.0/ARMTools/bin/../lib/gcc/arm-atollic-eabi/6.3.1/../../../../arm-atollic-eabi/lib/armv7-ar/thumb/fpu/libc_nano.a(lib_a-abort.o)
ras_int                                           ./libkernel.a(interrupt.o)
ras_ter                                           ./libkernel.a(task_term.o)
readdir                                           libmbed.a(retarget.o)
ref_sem                                           ./libkernel.a(semaphore.o)
rel_wai                                           ./libkernel.a(task_sync.o)
remove                                            libmbed.a(retarget.o)
rename                                            libmbed.a(retarget.o)
rewinddir                                         libmbed.a(retarget.o)
rot_rdq                                           ./libkernel.a(sys_manage.o)
rsm_tsk                                           ./libkernel.a(task_sync.o)
seekdir                                           libmbed.a(retarget.o)
seen_id0_active                                   libmbed.a(system_MBRZA1H.o)
serial_baud                                       libmbed.a(serial_api.o)
serial_break_clear                                libmbed.a(serial_api.o)
serial_break_set                                  libmbed.a(serial_api.o)
serial_clear                                      libmbed.a(serial_api.o)
serial_cls_por                                    tSerialAdapter.o
serial_ctl_por                                    tSerialAdapter.o
serial_format                                     libmbed.a(serial_api.o)
serial_free                                       libmbed.a(serial_api.o)
serial_getc                                       libmbed.a(serial_api.o)
                                                  libmbed.a(retarget.o)
serial_init                                       libmbed.a(serial_api.o)
                                                  libmbed.a(retarget.o)
serial_irq_handler                                libmbed.a(serial_api.o)
serial_irq_set                                    libmbed.a(serial_api.o)
serial_opn_por                                    tSerialAdapter.o
serial_pinout_tx                                  libmbed.a(serial_api.o)
serial_putc                                       libmbed.a(serial_api.o)
                                                  libmbed.a(retarget.o)
serial_rea_dat                                    tSerialAdapter.o
serial_readable                                   libmbed.a(serial_api.o)
serial_ref_por                                    tSerialAdapter.o
serial_set_flow_control                           libmbed.a(serial_api.o)
serial_wri_dat                                    tSerialAdapter.o
serial_writable                                   libmbed.a(serial_api.o)
setbuf                                            /opt/Atollic_TrueSTUDIO_for_ARM_x86_64_8.0.0/ARMTools/bin/../lib/gcc/arm-atollic-eabi/6.3.1/../../../../arm-atollic-eabi/lib/armv7-ar/thumb/fpu/libc_nano.a(lib_a-setbuf.o)
                                                  libmbed.a(retarget.o)
setlocale                                         /opt/Atollic_TrueSTUDIO_for_ARM_x86_64_8.0.0/ARMTools/bin/../lib/gcc/arm-atollic-eabi/6.3.1/../../../../arm-atollic-eabi/lib/armv7-ar/thumb/fpu/libc_nano.a(lib_a-locale.o)
setvbuf                                           /opt/Atollic_TrueSTUDIO_for_ARM_x86_64_8.0.0/ARMTools/bin/../lib/gcc/arm-atollic-eabi/6.3.1/../../../../arm-atollic-eabi/lib/armv7-ar/thumb/fpu/libc_nano.a(lib_a-setvbuf.o)
                                                  /opt/Atollic_TrueSTUDIO_for_ARM_x86_64_8.0.0/ARMTools/bin/../lib/gcc/arm-atollic-eabi/6.3.1/../../../../arm-atollic-eabi/lib/armv7-ar/thumb/fpu/libc_nano.a(lib_a-setbuf.o)
sig_sem                                           ./libkernel.a(semaphore.o)
                                                  tSerialPortMain.o
signal                                            /opt/Atollic_TrueSTUDIO_for_ARM_x86_64_8.0.0/ARMTools/bin/../lib/gcc/arm-atollic-eabi/6.3.1/../../../../arm-atollic-eabi/lib/armv7-ar/thumb/fpu/libc_nano.a(lib_a-signal.o)
sil_dly_nse                                       ./libkernel.a(core_support.o)
siprintf                                          /opt/Atollic_TrueSTUDIO_for_ARM_x86_64_8.0.0/ARMTools/bin/../lib/gcc/arm-atollic-eabi/6.3.1/../../../../arm-atollic-eabi/lib/armv7-ar/thumb/fpu/libc_nano.a(lib_a-sprintf.o)
siscanf                                           /opt/Atollic_TrueSTUDIO_for_ARM_x86_64_8.0.0/ARMTools/bin/../lib/gcc/arm-atollic-eabi/6.3.1/../../../../arm-atollic-eabi/lib/armv7-ar/thumb/fpu/libc_nano.a(lib_a-sscanf.o)
slp_tsk                                           ./libkernel.a(task_sync.o)
sns_ctx                                           ./libkernel.a(sys_manage.o)
sns_dpn                                           ./libkernel.a(sys_manage.o)
                                                  tLogTaskMain.o
                                                  tSerialAdapter.o
                                                  tSerialPortMain.o
sns_dsp                                           ./libkernel.a(sys_manage.o)
sns_ker                                           ./libkernel.a(sys_manage.o)
sns_loc                                           ./libkernel.a(sys_manage.o)
sns_ter                                           ./libkernel.a(task_term.o)
software_init_hook                                start.o
software_term_hook                                ./libkernel.a(chip_kernel_impl.o)
sprintf                                           /opt/Atollic_TrueSTUDIO_for_ARM_x86_64_8.0.0/ARMTools/bin/../lib/gcc/arm-atollic-eabi/6.3.1/../../../../arm-atollic-eabi/lib/armv7-ar/thumb/fpu/libc_nano.a(lib_a-sprintf.o)
                                                  /opt/Atollic_TrueSTUDIO_for_ARM_x86_64_8.0.0/ARMTools/bin/../lib/gcc/arm-atollic-eabi/6.3.1/../../../../arm-atollic-eabi/lib/armv7-ar/thumb/fpu/libc_nano.a(lib_a-nano-vfscanf_float.o)
sscanf                                            /opt/Atollic_TrueSTUDIO_for_ARM_x86_64_8.0.0/ARMTools/bin/../lib/gcc/arm-atollic-eabi/6.3.1/../../../../arm-atollic-eabi/lib/armv7-ar/thumb/fpu/libc_nano.a(lib_a-sscanf.o)
                                                  libmbed.a(retarget.o)
sta_ker                                           ./libkernel.a(startup.o)
                                                  start.o
start                                             start.o
                                                  ./libkernel.a(core_support.o)
                                                  libmbed.a(startup_RZ1AH.o)
std::get_new_handler()                            /opt/Atollic_TrueSTUDIO_for_ARM_x86_64_8.0.0/ARMTools/bin/../lib/gcc/arm-atollic-eabi/6.3.1/../../../../arm-atollic-eabi/lib/armv7-ar/thumb/fpu/libstdc++_nano.a(new_handler.o)
                                                  /opt/Atollic_TrueSTUDIO_for_ARM_x86_64_8.0.0/ARMTools/bin/../lib/gcc/arm-atollic-eabi/6.3.1/../../../../arm-atollic-eabi/lib/armv7-ar/thumb/fpu/libstdc++_nano.a(new_op.o)
std::nothrow                                      /opt/Atollic_TrueSTUDIO_for_ARM_x86_64_8.0.0/ARMTools/bin/../lib/gcc/arm-atollic-eabi/6.3.1/../../../../arm-atollic-eabi/lib/armv7-ar/thumb/fpu/libstdc++_nano.a(new_handler.o)
std::set_new_handler(void (*)())                  /opt/Atollic_TrueSTUDIO_for_ARM_x86_64_8.0.0/ARMTools/bin/../lib/gcc/arm-atollic-eabi/6.3.1/../../../../arm-atollic-eabi/lib/armv7-ar/thumb/fpu/libstdc++_nano.a(new_handler.o)
stdio_uart                                        libmbed.a(serial_api.o)
                                                  libmbed.a(retarget.o)
stdio_uart_inited                                 libmbed.a(serial_api.o)
                                                  libmbed.a(retarget.o)
strcmp                                            /opt/Atollic_TrueSTUDIO_for_ARM_x86_64_8.0.0/ARMTools/bin/../lib/gcc/arm-atollic-eabi/6.3.1/../../../../arm-atollic-eabi/lib/armv7-ar/thumb/fpu/libc_nano.a(lib_a-strcmp.o)
                                                  /opt/Atollic_TrueSTUDIO_for_ARM_x86_64_8.0.0/ARMTools/bin/../lib/gcc/arm-atollic-eabi/6.3.1/../../../../arm-atollic-eabi/lib/armv7-ar/thumb/fpu/libc_nano.a(lib_a-locale.o)
                                                  libmbed.a(retarget.o)
strlen                                            /opt/Atollic_TrueSTUDIO_for_ARM_x86_64_8.0.0/ARMTools/bin/../lib/gcc/arm-atollic-eabi/6.3.1/../../../../arm-atollic-eabi/lib/armv7-ar/thumb/fpu/libc_nano.a(lib_a-strlen.o)
                                                  /opt/Atollic_TrueSTUDIO_for_ARM_x86_64_8.0.0/ARMTools/bin/../lib/gcc/arm-atollic-eabi/6.3.1/../../../../arm-atollic-eabi/lib/armv7-ar/thumb/fpu/libc_nano.a(lib_a-gdtoa-gethex.o)
                                                  /opt/Atollic_TrueSTUDIO_for_ARM_x86_64_8.0.0/ARMTools/bin/../lib/gcc/arm-atollic-eabi/6.3.1/../../../../arm-atollic-eabi/lib/armv7-ar/thumb/fpu/libc_nano.a(lib_a-strtod.o)
                                                  /opt/Atollic_TrueSTUDIO_for_ARM_x86_64_8.0.0/ARMTools/bin/../lib/gcc/arm-atollic-eabi/6.3.1/../../../../arm-atollic-eabi/lib/armv7-ar/thumb/fpu/libc_nano.a(lib_a-sscanf.o)
                                                  /opt/Atollic_TrueSTUDIO_for_ARM_x86_64_8.0.0/ARMTools/bin/../lib/gcc/arm-atollic-eabi/6.3.1/../../../../arm-atollic-eabi/lib/armv7-ar/thumb/fpu/libc_nano.a(lib_a-nano-vfprintf_float.o)
                                                  libmbed.a(FileBase.o)
strncmp                                           /opt/Atollic_TrueSTUDIO_for_ARM_x86_64_8.0.0/ARMTools/bin/../lib/gcc/arm-atollic-eabi/6.3.1/../../../../arm-atollic-eabi/lib/armv7-ar/thumb/fpu/libc_nano.a(lib_a-strncmp.o)
                                                  /opt/Atollic_TrueSTUDIO_for_ARM_x86_64_8.0.0/ARMTools/bin/../lib/gcc/arm-atollic-eabi/6.3.1/../../../../arm-atollic-eabi/lib/armv7-ar/thumb/fpu/libc_nano.a(lib_a-gdtoa-gethex.o)
                                                  /opt/Atollic_TrueSTUDIO_for_ARM_x86_64_8.0.0/ARMTools/bin/../lib/gcc/arm-atollic-eabi/6.3.1/../../../../arm-atollic-eabi/lib/armv7-ar/thumb/fpu/libc_nano.a(lib_a-strtod.o)
                                                  libmbed.a(FileBase.o)
strncpy                                           /opt/Atollic_TrueSTUDIO_for_ARM_x86_64_8.0.0/ARMTools/bin/../lib/gcc/arm-atollic-eabi/6.3.1/../../../../arm-atollic-eabi/lib/armv7-ar/thumb/fpu/libc_nano.a(lib_a-strncpy.o)
                                                  libmbed.a(FileSystemLike.o)
strtod                                            /opt/Atollic_TrueSTUDIO_for_ARM_x86_64_8.0.0/ARMTools/bin/../lib/gcc/arm-atollic-eabi/6.3.1/../../../../arm-atollic-eabi/lib/armv7-ar/thumb/fpu/libc_nano.a(lib_a-strtod.o)
strtod_l                                          /opt/Atollic_TrueSTUDIO_for_ARM_x86_64_8.0.0/ARMTools/bin/../lib/gcc/arm-atollic-eabi/6.3.1/../../../../arm-atollic-eabi/lib/armv7-ar/thumb/fpu/libc_nano.a(lib_a-strtod.o)
strtof                                            /opt/Atollic_TrueSTUDIO_for_ARM_x86_64_8.0.0/ARMTools/bin/../lib/gcc/arm-atollic-eabi/6.3.1/../../../../arm-atollic-eabi/lib/armv7-ar/thumb/fpu/libc_nano.a(lib_a-strtod.o)
strtof_l                                          /opt/Atollic_TrueSTUDIO_for_ARM_x86_64_8.0.0/ARMTools/bin/../lib/gcc/arm-atollic-eabi/6.3.1/../../../../arm-atollic-eabi/lib/armv7-ar/thumb/fpu/libc_nano.a(lib_a-strtod.o)
strtol                                            /opt/Atollic_TrueSTUDIO_for_ARM_x86_64_8.0.0/ARMTools/bin/../lib/gcc/arm-atollic-eabi/6.3.1/../../../../arm-atollic-eabi/lib/armv7-ar/thumb/fpu/libc_nano.a(lib_a-strtol.o)
strtol_l                                          /opt/Atollic_TrueSTUDIO_for_ARM_x86_64_8.0.0/ARMTools/bin/../lib/gcc/arm-atollic-eabi/6.3.1/../../../../arm-atollic-eabi/lib/armv7-ar/thumb/fpu/libc_nano.a(lib_a-strtol.o)
strtoul                                           /opt/Atollic_TrueSTUDIO_for_ARM_x86_64_8.0.0/ARMTools/bin/../lib/gcc/arm-atollic-eabi/6.3.1/../../../../arm-atollic-eabi/lib/armv7-ar/thumb/fpu/libc_nano.a(lib_a-strtoul.o)
strtoul_l                                         /opt/Atollic_TrueSTUDIO_for_ARM_x86_64_8.0.0/ARMTools/bin/../lib/gcc/arm-atollic-eabi/6.3.1/../../../../arm-atollic-eabi/lib/armv7-ar/thumb/fpu/libc_nano.a(lib_a-strtoul.o)
sus_tsk                                           ./libkernel.a(task_sync.o)
syslog_fls_log                                    tSysLogAdapter.o
syslog_lostmsg                                    log_output.o
                                                  tLogTaskMain.o
                                                  tSysLog.o
syslog_msk_log                                    tSysLogAdapter.o
syslog_print                                      log_output.o
                                                  tLogTaskMain.o
                                                  tSysLog.o
syslog_printf                                     log_output.o
                                                  tLogTaskMain.o
syslog_rea_log                                    tSysLogAdapter.o
syslog_ref_log                                    tSysLogAdapter.o
syslog_wri_log                                    tSysLogAdapter.o
                                                  ./libkernel.a(wait.o)
                                                  ./libkernel.a(semaphore.o)
                                                  ./libkernel.a(task_sync.o)
                                                  ./libkernel.a(time_event.o)
                                                  ./libkernel.a(task.o)
                                                  ./libkernel.a(core_kernel_impl.o)
                                                  ./libkernel.a(chip_kernel_impl.o)
                                                  tSCIF.o
                                                  tBannerMain.o
                                                  tLogTaskMain.o
tBannerMain_CB_initialize                         tBannerMain_tecsgen.o
                                                  init_tecs.o
tBannerMain_SINGLE_CELL_INIB                      tBannerMain_tecsgen.o
                                                  tBannerMain.o
tBannerMain_eBannerInitialize_main                tBannerMain.o
                                                  tInitializeRoutine.o
tISR_CB_initialize                                tISR_tecsgen.o
                                                  init_tecs.o
tISR_INIB_tab                                     tISR_tecsgen.o
                                                  kernel_cfg.o
tISR_start                                        tISR.o
                                                  kernel_cfg.o
tInitializeRoutine_CB_initialize                  tInitializeRoutine_tecsgen.o
                                                  init_tecs.o
tInitializeRoutine_start                          tInitializeRoutine.o
                                                  kernel_cfg.o
tInterruptRequest_CB_initialize                   tInterruptRequest_tecsgen.o
                                                  init_tecs.o
tInterruptRequest_INIB_tab                        tInterruptRequest_tecsgen.o
                                                  tPutLogGRPeach.o
                                                  tSerialPortMain.o
tLogTaskMain_CB_initialize                        tLogTaskMain_tecsgen.o
                                                  init_tecs.o
tLogTaskMain_SINGLE_CELL_INIB                     tLogTaskMain_tecsgen.o
                                                  tLogTaskMain.o
tLogTaskMain_eLogTaskBody_main                    tLogTaskMain.o
                                                  tTask.o
tLogTaskMain_eLogTaskTerminate_main               tLogTaskMain.o
                                                  tTerminateRoutine.o
tLogTaskMain_eLogTask_flush                       tLogTaskMain.o
tPutLogGRPeach_CB_initialize                      tPutLogGRPeach_tecsgen.o
                                                  init_tecs.o
tPutLogGRPeach_ePutLog_putChar                    tPutLogGRPeach.o
                                                  tLogTaskMain.o
                                                  tSysLog.o
tPutLogGRPeach_initialize                         tPutLogGRPeach.o
                                                  ./libkernel.a(target_kernel_impl.o)
tSCIF_CB_initialize                               tSCIF_tecsgen.o
                                                  init_tecs.o
tSCIF_CB_tab                                      tSCIF_tecsgen.o
                                                  tPutLogGRPeach.o
                                                  tSerialPortMain.o
tSCIF_INIB_tab                                    tSCIF_tecsgen.o
tSCIF_eSIOPort_close                              tSCIF.o
                                                  tSerialPortMain.o
tSCIF_eSIOPort_disableCBR                         tSCIF.o
                                                  tSerialPortMain.o
tSCIF_eSIOPort_enableCBR                          tSCIF.o
                                                  tSerialPortMain.o
tSCIF_eSIOPort_getChar                            tSCIF.o
                                                  tSerialPortMain.o
tSCIF_eSIOPort_open                               tSCIF.o
                                                  tPutLogGRPeach.o
                                                  tSerialPortMain.o
tSCIF_eSIOPort_putChar                            tSCIF.o
                                                  tPutLogGRPeach.o
                                                  tSerialPortMain.o
tSCIF_eiRxISR_MT_                                 tSCIF_tecsgen.o
tSCIF_eiRxISR_main                                tSCIF.o
                                                  tSCIF_tecsgen.o
tSCIF_eiRxISR_main_skel                           tSCIF_tecsgen.o
tSCIF_eiTxISR_MT_                                 tSCIF_tecsgen.o
tSCIF_eiTxISR_main                                tSCIF.o
                                                  tSCIF_tecsgen.o
tSCIF_eiTxISR_main_skel                           tSCIF_tecsgen.o
tSIOPortGRPeachMain_CB_initialize                 tSIOPortGRPeachMain_tecsgen.o
                                                  init_tecs.o
tSemaphore_CB_initialize                          tSemaphore_tecsgen.o
                                                  init_tecs.o
tSemaphore_INIB_tab                               tSemaphore_tecsgen.o
                                                  tSerialPortMain.o
tSerialAdapter_CB_initialize                      tSerialAdapter_tecsgen.o
                                                  init_tecs.o
tSerialAdapter_SINGLE_CELL_INIB                   tSerialAdapter_tecsgen.o
                                                  tSerialAdapter.o
tSerialPortMain_CB_initialize                     tSerialPortMain_tecsgen.o
                                                  init_tecs.o
tSerialPortMain_CB_tab                            tSerialPortMain_tecsgen.o
                                                  tSCIF.o
                                                  tLogTaskMain.o
tSerialPortMain_INIB_tab                          tSerialPortMain_tecsgen.o
tSerialPortMain_SerialPort1_SerialPortMain_CB_receiveBuffer_INIT tSerialPortMain_tecsgen.o
tSerialPortMain_SerialPort1_SerialPortMain_CB_sendBuffer_INIT tSerialPortMain_tecsgen.o
tSerialPortMain_eSerialPort_MT_                   tSerialPortMain_tecsgen.o
tSerialPortMain_eSerialPort_close                 tSerialPortMain.o
                                                  tSerialPortMain_tecsgen.o
tSerialPortMain_eSerialPort_close_skel            tSerialPortMain_tecsgen.o
tSerialPortMain_eSerialPort_control               tSerialPortMain.o
                                                  tSerialPortMain_tecsgen.o
tSerialPortMain_eSerialPort_control_skel          tSerialPortMain_tecsgen.o
tSerialPortMain_eSerialPort_open                  tSerialPortMain.o
                                                  tLogTaskMain.o
                                                  tSerialPortMain_tecsgen.o
tSerialPortMain_eSerialPort_open_skel             tSerialPortMain_tecsgen.o
tSerialPortMain_eSerialPort_read                  tSerialPortMain.o
                                                  tSerialPortMain_tecsgen.o
tSerialPortMain_eSerialPort_read_skel             tSerialPortMain_tecsgen.o
tSerialPortMain_eSerialPort_refer                 tSerialPortMain.o
                                                  tLogTaskMain.o
                                                  tSerialPortMain_tecsgen.o
tSerialPortMain_eSerialPort_refer_skel            tSerialPortMain_tecsgen.o
tSerialPortMain_eSerialPort_write                 tSerialPortMain.o
                                                  tLogTaskMain.o
                                                  tSerialPortMain_tecsgen.o
tSerialPortMain_eSerialPort_write_skel            tSerialPortMain_tecsgen.o
tSerialPortMain_eiSIOCBR_readyReceive             tSerialPortMain.o
                                                  tSCIF.o
tSerialPortMain_eiSIOCBR_readySend                tSerialPortMain.o
                                                  tSCIF.o
tSerialPortMain_enSerialPortManage_getChar        tSerialPortMain.o
                                                  tLogTaskMain.o
tSysLogAdapter_CB_initialize                      tSysLogAdapter_tecsgen.o
                                                  init_tecs.o
tSysLog_CB_initialize                             tSysLog_tecsgen.o
                                                  init_tecs.o
tSysLog_SINGLE_CELL_CB                            tSysLog_tecsgen.o
                                                  tSysLog.o
tSysLog_SINGLE_CELL_CB_logBuffer_INIT             tSysLog_tecsgen.o
tSysLog_SINGLE_CELL_INIB                          tSysLog_tecsgen.o
                                                  tSysLog.o
tSysLog_eSysLog_flush                             tSysLog.o
                                                  tSysLogAdapter.o
tSysLog_eSysLog_mask                              tSysLog.o
                                                  tSysLogAdapter.o
tSysLog_eSysLog_read                              tSysLog.o
                                                  tLogTaskMain.o
                                                  tSysLogAdapter.o
tSysLog_eSysLog_refer                             tSysLog.o
                                                  tLogTaskMain.o
                                                  tSysLogAdapter.o
tSysLog_eSysLog_write                             tSysLog.o
                                                  tSysLogAdapter.o
tTask_CB_initialize                               tTask_tecsgen.o
                                                  init_tecs.o
tTask_INIB_tab                                    tTask_tecsgen.o
                                                  kernel_cfg.o
tTask_start                                       tTask.o
                                                  kernel_cfg.o
tTerminateRoutine_CB_initialize                   tTerminateRoutine_tecsgen.o
                                                  init_tecs.o
tTerminateRoutine_start                           tTerminateRoutine.o
                                                  kernel_cfg.o
telldir                                           libmbed.a(retarget.o)
ter_tsk                                           ./libkernel.a(task_term.o)
ticker_get_next_timestamp                         libmbed.a(ticker_api.o)
ticker_insert_event                               libmbed.a(ticker_api.o)
                                                  libmbed.a(TimerEvent.o)
ticker_irq_handler                                libmbed.a(ticker_api.o)
                                                  libmbed.a(us_ticker_api.o)
ticker_read                                       libmbed.a(ticker_api.o)
                                                  libmbed.a(Ticker.o)
ticker_remove_event                               libmbed.a(ticker_api.o)
                                                  libmbed.a(TimerEvent.o)
ticker_set_handler                                libmbed.a(ticker_api.o)
                                                  libmbed.a(TimerEvent.o)
tmpfile                                           libmbed.a(retarget.o)
tmpnam                                            libmbed.a(retarget.o)
tslp_tsk                                          ./libkernel.a(task_sync.o)
tt_perror                                         t_perror.o
tt_syslog                                         vasyslog.o
twai_sem                                          ./libkernel.a(semaphore.o)
ungetc                                            /opt/Atollic_TrueSTUDIO_for_ARM_x86_64_8.0.0/ARMTools/bin/../lib/gcc/arm-atollic-eabi/6.3.1/../../../../arm-atollic-eabi/lib/armv7-ar/thumb/fpu/libc_nano.a(lib_a-ungetc.o)
unl_cpu                                           ./libkernel.a(sys_manage.o)
                                                  tSerialPortMain.o
us_ticker_clear_interrupt                         libmbed.a(us_ticker.o)
                                                  libmbed.a(us_ticker_api.o)
us_ticker_disable_interrupt                       libmbed.a(us_ticker.o)
                                                  libmbed.a(us_ticker_api.o)
us_ticker_init                                    libmbed.a(us_ticker.o)
                                                  libmbed.a(us_ticker_api.o)
us_ticker_inited                                  libmbed.a(us_ticker.o)
us_ticker_interrupt                               libmbed.a(us_ticker.o)
us_ticker_irq_handler                             libmbed.a(us_ticker_api.o)
                                                  libmbed.a(us_ticker.o)
us_ticker_read                                    libmbed.a(us_ticker.o)
                                                  libmbed.a(wait_api.o)
                                                  libmbed.a(us_ticker_api.o)
us_ticker_set_interrupt                           libmbed.a(us_ticker.o)
                                                  libmbed.a(us_ticker_api.o)
vector_ref_table                                  ./libkernel.a(core_support.o)
vector_table                                      ./libkernel.a(core_support.o)
void mbed::FunctionPointerArg1<void, void>::attach<SoftPWM>(SoftPWM*, void (SoftPWM::*)()) libmbed.a(SoftPWM.o)
void mbed::FunctionPointerArg1<void, void>::membercaller<SoftPWM>(void*, unsigned int*) libmbed.a(SoftPWM.o)
void mbed::Ticker::attach<SoftPWM>(SoftPWM*, void (SoftPWM::*)(), float) libmbed.a(SoftPWM.o)
void mbed::Ticker::attach_us<SoftPWM>(SoftPWM*, void (SoftPWM::*)(), unsigned long) libmbed.a(SoftPWM.o)
vtable for mbed::BaseDirHandle                    libmbed.a(FileSystemLike.o)
vtable for mbed::DirHandle                        libmbed.a(FileSystemLike.o)
vtable for mbed::FileBase                         libmbed.a(FileBase.o)
vtable for mbed::FileHandle                       libmbed.a(retarget.o)
vtable for mbed::FileSystemLike                   libmbed.a(FileSystemLike.o)
vtable for mbed::Ticker                           libmbed.a(Ticker.o)
                                                  libmbed.a(SoftPWM.o)
                                                  libmbed.a(Timeout.o)
                                                  blinky.o
vtable for mbed::Timeout                          libmbed.a(Timeout.o)
                                                  libmbed.a(SoftPWM.o)
                                                  blinky.o
vtable for mbed::TimerEvent                       libmbed.a(TimerEvent.o)
wai_sem                                           ./libkernel.a(semaphore.o)
                                                  tSerialPortMain.o
wait                                              libmbed.a(wait_api.o)
                                                  libmbed.a(SoftPWM.o)
wait_ms                                           libmbed.a(wait_api.o)
                                                  libmbed.a(board.o)
wait_us                                           libmbed.a(wait_api.o)
wup_tsk                                           ./libkernel.a(task_sync.o)
